
build/zephyr/zephyr.elf:     file format elf32-littlearm


Disassembly of section rom_start:

00000000 <_vector_table>:

int __weak sys_clock_device_ctrl(const struct device *dev,
				 enum pm_device_action action)
{
	return -ENOSYS;
}
   0:	28 24 00 20 89 3f 00 00 f3 19 01 00 5d 3f 00 00     ($. .?......]?..
  10:	5d 3f 00 00 5d 3f 00 00 5d 3f 00 00 00 00 00 00     ]?..]?..]?......
	...
  2c:	e5 3c 00 00 5d 3f 00 00 00 00 00 00 9d 3c 00 00     .<..]?.......<..
  3c:	55 41 00 00                                         UA..

00000040 <_irq_vector_table>:
  40:	61 3d 00 00 61 3d 00 00 61 3d 00 00 61 3d 00 00     a=..a=..a=..a=..
  50:	61 3d 00 00 61 3d 00 00 61 3d 00 00 61 3d 00 00     a=..a=..a=..a=..
  60:	61 3d 00 00 61 3d 00 00 61 3d 00 00 61 3d 00 00     a=..a=..a=..a=..
  70:	61 3d 00 00 61 3d 00 00 61 3d 00 00 61 3d 00 00     a=..a=..a=..a=..
  80:	61 3d 00 00 61 3d 00 00 61 3d 00 00 61 3d 00 00     a=..a=..a=..a=..
  90:	61 3d 00 00 61 3d 00 00 61 3d 00 00 61 3d 00 00     a=..a=..a=..a=..
  a0:	61 3d 00 00 61 3d 00 00 61 3d 00 00 61 3d 00 00     a=..a=..a=..a=..
  b0:	61 3d 00 00 61 3d 00 00 61 3d 00 00 61 3d 00 00     a=..a=..a=..a=..
  c0:	61 3d 00 00 61 3d 00 00 61 3d 00 00 61 3d 00 00     a=..a=..a=..a=..
  d0:	61 3d 00 00 61 3d 00 00 61 3d 00 00 61 3d 00 00     a=..a=..a=..a=..
  e0:	61 3d 00 00 61 3d 00 00 61 3d 00 00                 a=..a=..a=..

Disassembly of section text:

000000f0 <__aeabi_drsub>:
      f0:	f081 4100 	eor.w	r1, r1, #2147483648	; 0x80000000
      f4:	e002      	b.n	fc <__adddf3>
      f6:	bf00      	nop

000000f8 <__aeabi_dsub>:
      f8:	f083 4300 	eor.w	r3, r3, #2147483648	; 0x80000000

000000fc <__adddf3>:
      fc:	b530      	push	{r4, r5, lr}
      fe:	ea4f 0441 	mov.w	r4, r1, lsl #1
     102:	ea4f 0543 	mov.w	r5, r3, lsl #1
     106:	ea94 0f05 	teq	r4, r5
     10a:	bf08      	it	eq
     10c:	ea90 0f02 	teqeq	r0, r2
     110:	bf1f      	itttt	ne
     112:	ea54 0c00 	orrsne.w	ip, r4, r0
     116:	ea55 0c02 	orrsne.w	ip, r5, r2
     11a:	ea7f 5c64 	mvnsne.w	ip, r4, asr #21
     11e:	ea7f 5c65 	mvnsne.w	ip, r5, asr #21
     122:	f000 80e2 	beq.w	2ea <__data_size+0xef>
     126:	ea4f 5454 	mov.w	r4, r4, lsr #21
     12a:	ebd4 5555 	rsbs	r5, r4, r5, lsr #21
     12e:	bfb8      	it	lt
     130:	426d      	neglt	r5, r5
     132:	dd0c      	ble.n	14e <_STRUCT_KERNEL_SIZE+0x2e>
     134:	442c      	add	r4, r5
     136:	ea80 0202 	eor.w	r2, r0, r2
     13a:	ea81 0303 	eor.w	r3, r1, r3
     13e:	ea82 0000 	eor.w	r0, r2, r0
     142:	ea83 0101 	eor.w	r1, r3, r1
     146:	ea80 0202 	eor.w	r2, r0, r2
     14a:	ea81 0303 	eor.w	r3, r1, r3
     14e:	2d36      	cmp	r5, #54	; 0x36
     150:	bf88      	it	hi
     152:	bd30      	pophi	{r4, r5, pc}
     154:	f011 4f00 	tst.w	r1, #2147483648	; 0x80000000
     158:	ea4f 3101 	mov.w	r1, r1, lsl #12
     15c:	f44f 1c80 	mov.w	ip, #1048576	; 0x100000
     160:	ea4c 3111 	orr.w	r1, ip, r1, lsr #12
     164:	d002      	beq.n	16c <_STRUCT_KERNEL_SIZE+0x4c>
     166:	4240      	negs	r0, r0
     168:	eb61 0141 	sbc.w	r1, r1, r1, lsl #1
     16c:	f013 4f00 	tst.w	r3, #2147483648	; 0x80000000
     170:	ea4f 3303 	mov.w	r3, r3, lsl #12
     174:	ea4c 3313 	orr.w	r3, ip, r3, lsr #12
     178:	d002      	beq.n	180 <_STRUCT_KERNEL_SIZE+0x60>
     17a:	4252      	negs	r2, r2
     17c:	eb63 0343 	sbc.w	r3, r3, r3, lsl #1
     180:	ea94 0f05 	teq	r4, r5
     184:	f000 80a7 	beq.w	2d6 <__data_size+0xdb>
     188:	f1a4 0401 	sub.w	r4, r4, #1
     18c:	f1d5 0e20 	rsbs	lr, r5, #32
     190:	db0d      	blt.n	1ae <_STRUCT_KERNEL_SIZE+0x8e>
     192:	fa02 fc0e 	lsl.w	ip, r2, lr
     196:	fa22 f205 	lsr.w	r2, r2, r5
     19a:	1880      	adds	r0, r0, r2
     19c:	f141 0100 	adc.w	r1, r1, #0
     1a0:	fa03 f20e 	lsl.w	r2, r3, lr
     1a4:	1880      	adds	r0, r0, r2
     1a6:	fa43 f305 	asr.w	r3, r3, r5
     1aa:	4159      	adcs	r1, r3
     1ac:	e00e      	b.n	1cc <_STRUCT_KERNEL_SIZE+0xac>
     1ae:	f1a5 0520 	sub.w	r5, r5, #32
     1b2:	f10e 0e20 	add.w	lr, lr, #32
     1b6:	2a01      	cmp	r2, #1
     1b8:	fa03 fc0e 	lsl.w	ip, r3, lr
     1bc:	bf28      	it	cs
     1be:	f04c 0c02 	orrcs.w	ip, ip, #2
     1c2:	fa43 f305 	asr.w	r3, r3, r5
     1c6:	18c0      	adds	r0, r0, r3
     1c8:	eb51 71e3 	adcs.w	r1, r1, r3, asr #31
     1cc:	f001 4500 	and.w	r5, r1, #2147483648	; 0x80000000
     1d0:	d507      	bpl.n	1e2 <_STRUCT_KERNEL_SIZE+0xc2>
     1d2:	f04f 0e00 	mov.w	lr, #0
     1d6:	f1dc 0c00 	rsbs	ip, ip, #0
     1da:	eb7e 0000 	sbcs.w	r0, lr, r0
     1de:	eb6e 0101 	sbc.w	r1, lr, r1
     1e2:	f5b1 1f80 	cmp.w	r1, #1048576	; 0x100000
     1e6:	d31b      	bcc.n	220 <__data_size+0x25>
     1e8:	f5b1 1f00 	cmp.w	r1, #2097152	; 0x200000
     1ec:	d30c      	bcc.n	208 <__data_size+0xd>
     1ee:	0849      	lsrs	r1, r1, #1
     1f0:	ea5f 0030 	movs.w	r0, r0, rrx
     1f4:	ea4f 0c3c 	mov.w	ip, ip, rrx
     1f8:	f104 0401 	add.w	r4, r4, #1
     1fc:	ea4f 5244 	mov.w	r2, r4, lsl #21
     200:	f512 0f80 	cmn.w	r2, #4194304	; 0x400000
     204:	f080 809a 	bcs.w	33c <__data_size+0x141>
     208:	f1bc 4f00 	cmp.w	ip, #2147483648	; 0x80000000
     20c:	bf08      	it	eq
     20e:	ea5f 0c50 	movseq.w	ip, r0, lsr #1
     212:	f150 0000 	adcs.w	r0, r0, #0
     216:	eb41 5104 	adc.w	r1, r1, r4, lsl #20
     21a:	ea41 0105 	orr.w	r1, r1, r5
     21e:	bd30      	pop	{r4, r5, pc}
     220:	ea5f 0c4c 	movs.w	ip, ip, lsl #1
     224:	4140      	adcs	r0, r0
     226:	eb41 0101 	adc.w	r1, r1, r1
     22a:	3c01      	subs	r4, #1
     22c:	bf28      	it	cs
     22e:	f5b1 1f80 	cmpcs.w	r1, #1048576	; 0x100000
     232:	d2e9      	bcs.n	208 <__data_size+0xd>
     234:	f091 0f00 	teq	r1, #0
     238:	bf04      	itt	eq
     23a:	4601      	moveq	r1, r0
     23c:	2000      	moveq	r0, #0
     23e:	fab1 f381 	clz	r3, r1
     242:	bf08      	it	eq
     244:	3320      	addeq	r3, #32
     246:	f1a3 030b 	sub.w	r3, r3, #11
     24a:	f1b3 0220 	subs.w	r2, r3, #32
     24e:	da0c      	bge.n	26a <__data_size+0x6f>
     250:	320c      	adds	r2, #12
     252:	dd08      	ble.n	266 <__data_size+0x6b>
     254:	f102 0c14 	add.w	ip, r2, #20
     258:	f1c2 020c 	rsb	r2, r2, #12
     25c:	fa01 f00c 	lsl.w	r0, r1, ip
     260:	fa21 f102 	lsr.w	r1, r1, r2
     264:	e00c      	b.n	280 <__data_size+0x85>
     266:	f102 0214 	add.w	r2, r2, #20
     26a:	bfd8      	it	le
     26c:	f1c2 0c20 	rsble	ip, r2, #32
     270:	fa01 f102 	lsl.w	r1, r1, r2
     274:	fa20 fc0c 	lsr.w	ip, r0, ip
     278:	bfdc      	itt	le
     27a:	ea41 010c 	orrle.w	r1, r1, ip
     27e:	4090      	lslle	r0, r2
     280:	1ae4      	subs	r4, r4, r3
     282:	bfa2      	ittt	ge
     284:	eb01 5104 	addge.w	r1, r1, r4, lsl #20
     288:	4329      	orrge	r1, r5
     28a:	bd30      	popge	{r4, r5, pc}
     28c:	ea6f 0404 	mvn.w	r4, r4
     290:	3c1f      	subs	r4, #31
     292:	da1c      	bge.n	2ce <__data_size+0xd3>
     294:	340c      	adds	r4, #12
     296:	dc0e      	bgt.n	2b6 <__data_size+0xbb>
     298:	f104 0414 	add.w	r4, r4, #20
     29c:	f1c4 0220 	rsb	r2, r4, #32
     2a0:	fa20 f004 	lsr.w	r0, r0, r4
     2a4:	fa01 f302 	lsl.w	r3, r1, r2
     2a8:	ea40 0003 	orr.w	r0, r0, r3
     2ac:	fa21 f304 	lsr.w	r3, r1, r4
     2b0:	ea45 0103 	orr.w	r1, r5, r3
     2b4:	bd30      	pop	{r4, r5, pc}
     2b6:	f1c4 040c 	rsb	r4, r4, #12
     2ba:	f1c4 0220 	rsb	r2, r4, #32
     2be:	fa20 f002 	lsr.w	r0, r0, r2
     2c2:	fa01 f304 	lsl.w	r3, r1, r4
     2c6:	ea40 0003 	orr.w	r0, r0, r3
     2ca:	4629      	mov	r1, r5
     2cc:	bd30      	pop	{r4, r5, pc}
     2ce:	fa21 f004 	lsr.w	r0, r1, r4
     2d2:	4629      	mov	r1, r5
     2d4:	bd30      	pop	{r4, r5, pc}
     2d6:	f094 0f00 	teq	r4, #0
     2da:	f483 1380 	eor.w	r3, r3, #1048576	; 0x100000
     2de:	bf06      	itte	eq
     2e0:	f481 1180 	eoreq.w	r1, r1, #1048576	; 0x100000
     2e4:	3401      	addeq	r4, #1
     2e6:	3d01      	subne	r5, #1
     2e8:	e74e      	b.n	188 <_STRUCT_KERNEL_SIZE+0x68>
     2ea:	ea7f 5c64 	mvns.w	ip, r4, asr #21
     2ee:	bf18      	it	ne
     2f0:	ea7f 5c65 	mvnsne.w	ip, r5, asr #21
     2f4:	d029      	beq.n	34a <__data_size+0x14f>
     2f6:	ea94 0f05 	teq	r4, r5
     2fa:	bf08      	it	eq
     2fc:	ea90 0f02 	teqeq	r0, r2
     300:	d005      	beq.n	30e <__data_size+0x113>
     302:	ea54 0c00 	orrs.w	ip, r4, r0
     306:	bf04      	itt	eq
     308:	4619      	moveq	r1, r3
     30a:	4610      	moveq	r0, r2
     30c:	bd30      	pop	{r4, r5, pc}
     30e:	ea91 0f03 	teq	r1, r3
     312:	bf1e      	ittt	ne
     314:	2100      	movne	r1, #0
     316:	2000      	movne	r0, #0
     318:	bd30      	popne	{r4, r5, pc}
     31a:	ea5f 5c54 	movs.w	ip, r4, lsr #21
     31e:	d105      	bne.n	32c <__data_size+0x131>
     320:	0040      	lsls	r0, r0, #1
     322:	4149      	adcs	r1, r1
     324:	bf28      	it	cs
     326:	f041 4100 	orrcs.w	r1, r1, #2147483648	; 0x80000000
     32a:	bd30      	pop	{r4, r5, pc}
     32c:	f514 0480 	adds.w	r4, r4, #4194304	; 0x400000
     330:	bf3c      	itt	cc
     332:	f501 1180 	addcc.w	r1, r1, #1048576	; 0x100000
     336:	bd30      	popcc	{r4, r5, pc}
     338:	f001 4500 	and.w	r5, r1, #2147483648	; 0x80000000
     33c:	f045 41fe 	orr.w	r1, r5, #2130706432	; 0x7f000000
     340:	f441 0170 	orr.w	r1, r1, #15728640	; 0xf00000
     344:	f04f 0000 	mov.w	r0, #0
     348:	bd30      	pop	{r4, r5, pc}
     34a:	ea7f 5c64 	mvns.w	ip, r4, asr #21
     34e:	bf1a      	itte	ne
     350:	4619      	movne	r1, r3
     352:	4610      	movne	r0, r2
     354:	ea7f 5c65 	mvnseq.w	ip, r5, asr #21
     358:	bf1c      	itt	ne
     35a:	460b      	movne	r3, r1
     35c:	4602      	movne	r2, r0
     35e:	ea50 3401 	orrs.w	r4, r0, r1, lsl #12
     362:	bf06      	itte	eq
     364:	ea52 3503 	orrseq.w	r5, r2, r3, lsl #12
     368:	ea91 0f03 	teqeq	r1, r3
     36c:	f441 2100 	orrne.w	r1, r1, #524288	; 0x80000
     370:	bd30      	pop	{r4, r5, pc}
     372:	bf00      	nop

00000374 <__aeabi_ui2d>:
     374:	f090 0f00 	teq	r0, #0
     378:	bf04      	itt	eq
     37a:	2100      	moveq	r1, #0
     37c:	4770      	bxeq	lr
     37e:	b530      	push	{r4, r5, lr}
     380:	f44f 6480 	mov.w	r4, #1024	; 0x400
     384:	f104 0432 	add.w	r4, r4, #50	; 0x32
     388:	f04f 0500 	mov.w	r5, #0
     38c:	f04f 0100 	mov.w	r1, #0
     390:	e750      	b.n	234 <__data_size+0x39>
     392:	bf00      	nop

00000394 <__aeabi_i2d>:
     394:	f090 0f00 	teq	r0, #0
     398:	bf04      	itt	eq
     39a:	2100      	moveq	r1, #0
     39c:	4770      	bxeq	lr
     39e:	b530      	push	{r4, r5, lr}
     3a0:	f44f 6480 	mov.w	r4, #1024	; 0x400
     3a4:	f104 0432 	add.w	r4, r4, #50	; 0x32
     3a8:	f010 4500 	ands.w	r5, r0, #2147483648	; 0x80000000
     3ac:	bf48      	it	mi
     3ae:	4240      	negmi	r0, r0
     3b0:	f04f 0100 	mov.w	r1, #0
     3b4:	e73e      	b.n	234 <__data_size+0x39>
     3b6:	bf00      	nop

000003b8 <__aeabi_f2d>:
     3b8:	0042      	lsls	r2, r0, #1
     3ba:	ea4f 01e2 	mov.w	r1, r2, asr #3
     3be:	ea4f 0131 	mov.w	r1, r1, rrx
     3c2:	ea4f 7002 	mov.w	r0, r2, lsl #28
     3c6:	bf1f      	itttt	ne
     3c8:	f012 437f 	andsne.w	r3, r2, #4278190080	; 0xff000000
     3cc:	f093 4f7f 	teqne	r3, #4278190080	; 0xff000000
     3d0:	f081 5160 	eorne.w	r1, r1, #939524096	; 0x38000000
     3d4:	4770      	bxne	lr
     3d6:	f032 427f 	bics.w	r2, r2, #4278190080	; 0xff000000
     3da:	bf08      	it	eq
     3dc:	4770      	bxeq	lr
     3de:	f093 4f7f 	teq	r3, #4278190080	; 0xff000000
     3e2:	bf04      	itt	eq
     3e4:	f441 2100 	orreq.w	r1, r1, #524288	; 0x80000
     3e8:	4770      	bxeq	lr
     3ea:	b530      	push	{r4, r5, lr}
     3ec:	f44f 7460 	mov.w	r4, #896	; 0x380
     3f0:	f001 4500 	and.w	r5, r1, #2147483648	; 0x80000000
     3f4:	f021 4100 	bic.w	r1, r1, #2147483648	; 0x80000000
     3f8:	e71c      	b.n	234 <__data_size+0x39>
     3fa:	bf00      	nop

000003fc <__aeabi_ul2d>:
     3fc:	ea50 0201 	orrs.w	r2, r0, r1
     400:	bf08      	it	eq
     402:	4770      	bxeq	lr
     404:	b530      	push	{r4, r5, lr}
     406:	f04f 0500 	mov.w	r5, #0
     40a:	e00a      	b.n	422 <__aeabi_l2d+0x16>

0000040c <__aeabi_l2d>:
     40c:	ea50 0201 	orrs.w	r2, r0, r1
     410:	bf08      	it	eq
     412:	4770      	bxeq	lr
     414:	b530      	push	{r4, r5, lr}
     416:	f011 4500 	ands.w	r5, r1, #2147483648	; 0x80000000
     41a:	d502      	bpl.n	422 <__aeabi_l2d+0x16>
     41c:	4240      	negs	r0, r0
     41e:	eb61 0141 	sbc.w	r1, r1, r1, lsl #1
     422:	f44f 6480 	mov.w	r4, #1024	; 0x400
     426:	f104 0432 	add.w	r4, r4, #50	; 0x32
     42a:	ea5f 5c91 	movs.w	ip, r1, lsr #22
     42e:	f43f aed8 	beq.w	1e2 <_STRUCT_KERNEL_SIZE+0xc2>
     432:	f04f 0203 	mov.w	r2, #3
     436:	ea5f 0cdc 	movs.w	ip, ip, lsr #3
     43a:	bf18      	it	ne
     43c:	3203      	addne	r2, #3
     43e:	ea5f 0cdc 	movs.w	ip, ip, lsr #3
     442:	bf18      	it	ne
     444:	3203      	addne	r2, #3
     446:	eb02 02dc 	add.w	r2, r2, ip, lsr #3
     44a:	f1c2 0320 	rsb	r3, r2, #32
     44e:	fa00 fc03 	lsl.w	ip, r0, r3
     452:	fa20 f002 	lsr.w	r0, r0, r2
     456:	fa01 fe03 	lsl.w	lr, r1, r3
     45a:	ea40 000e 	orr.w	r0, r0, lr
     45e:	fa21 f102 	lsr.w	r1, r1, r2
     462:	4414      	add	r4, r2
     464:	e6bd      	b.n	1e2 <_STRUCT_KERNEL_SIZE+0xc2>
     466:	bf00      	nop

00000468 <__aeabi_dmul>:
     468:	b570      	push	{r4, r5, r6, lr}
     46a:	f04f 0cff 	mov.w	ip, #255	; 0xff
     46e:	f44c 6ce0 	orr.w	ip, ip, #1792	; 0x700
     472:	ea1c 5411 	ands.w	r4, ip, r1, lsr #20
     476:	bf1d      	ittte	ne
     478:	ea1c 5513 	andsne.w	r5, ip, r3, lsr #20
     47c:	ea94 0f0c 	teqne	r4, ip
     480:	ea95 0f0c 	teqne	r5, ip
     484:	f000 f8de 	bleq	644 <__aeabi_dmul+0x1dc>
     488:	442c      	add	r4, r5
     48a:	ea81 0603 	eor.w	r6, r1, r3
     48e:	ea21 514c 	bic.w	r1, r1, ip, lsl #21
     492:	ea23 534c 	bic.w	r3, r3, ip, lsl #21
     496:	ea50 3501 	orrs.w	r5, r0, r1, lsl #12
     49a:	bf18      	it	ne
     49c:	ea52 3503 	orrsne.w	r5, r2, r3, lsl #12
     4a0:	f441 1180 	orr.w	r1, r1, #1048576	; 0x100000
     4a4:	f443 1380 	orr.w	r3, r3, #1048576	; 0x100000
     4a8:	d038      	beq.n	51c <__aeabi_dmul+0xb4>
     4aa:	fba0 ce02 	umull	ip, lr, r0, r2
     4ae:	f04f 0500 	mov.w	r5, #0
     4b2:	fbe1 e502 	umlal	lr, r5, r1, r2
     4b6:	f006 4200 	and.w	r2, r6, #2147483648	; 0x80000000
     4ba:	fbe0 e503 	umlal	lr, r5, r0, r3
     4be:	f04f 0600 	mov.w	r6, #0
     4c2:	fbe1 5603 	umlal	r5, r6, r1, r3
     4c6:	f09c 0f00 	teq	ip, #0
     4ca:	bf18      	it	ne
     4cc:	f04e 0e01 	orrne.w	lr, lr, #1
     4d0:	f1a4 04ff 	sub.w	r4, r4, #255	; 0xff
     4d4:	f5b6 7f00 	cmp.w	r6, #512	; 0x200
     4d8:	f564 7440 	sbc.w	r4, r4, #768	; 0x300
     4dc:	d204      	bcs.n	4e8 <__aeabi_dmul+0x80>
     4de:	ea5f 0e4e 	movs.w	lr, lr, lsl #1
     4e2:	416d      	adcs	r5, r5
     4e4:	eb46 0606 	adc.w	r6, r6, r6
     4e8:	ea42 21c6 	orr.w	r1, r2, r6, lsl #11
     4ec:	ea41 5155 	orr.w	r1, r1, r5, lsr #21
     4f0:	ea4f 20c5 	mov.w	r0, r5, lsl #11
     4f4:	ea40 505e 	orr.w	r0, r0, lr, lsr #21
     4f8:	ea4f 2ece 	mov.w	lr, lr, lsl #11
     4fc:	f1b4 0cfd 	subs.w	ip, r4, #253	; 0xfd
     500:	bf88      	it	hi
     502:	f5bc 6fe0 	cmphi.w	ip, #1792	; 0x700
     506:	d81e      	bhi.n	546 <__aeabi_dmul+0xde>
     508:	f1be 4f00 	cmp.w	lr, #2147483648	; 0x80000000
     50c:	bf08      	it	eq
     50e:	ea5f 0e50 	movseq.w	lr, r0, lsr #1
     512:	f150 0000 	adcs.w	r0, r0, #0
     516:	eb41 5104 	adc.w	r1, r1, r4, lsl #20
     51a:	bd70      	pop	{r4, r5, r6, pc}
     51c:	f006 4600 	and.w	r6, r6, #2147483648	; 0x80000000
     520:	ea46 0101 	orr.w	r1, r6, r1
     524:	ea40 0002 	orr.w	r0, r0, r2
     528:	ea81 0103 	eor.w	r1, r1, r3
     52c:	ebb4 045c 	subs.w	r4, r4, ip, lsr #1
     530:	bfc2      	ittt	gt
     532:	ebd4 050c 	rsbsgt	r5, r4, ip
     536:	ea41 5104 	orrgt.w	r1, r1, r4, lsl #20
     53a:	bd70      	popgt	{r4, r5, r6, pc}
     53c:	f441 1180 	orr.w	r1, r1, #1048576	; 0x100000
     540:	f04f 0e00 	mov.w	lr, #0
     544:	3c01      	subs	r4, #1
     546:	f300 80ab 	bgt.w	6a0 <__aeabi_dmul+0x238>
     54a:	f114 0f36 	cmn.w	r4, #54	; 0x36
     54e:	bfde      	ittt	le
     550:	2000      	movle	r0, #0
     552:	f001 4100 	andle.w	r1, r1, #2147483648	; 0x80000000
     556:	bd70      	pople	{r4, r5, r6, pc}
     558:	f1c4 0400 	rsb	r4, r4, #0
     55c:	3c20      	subs	r4, #32
     55e:	da35      	bge.n	5cc <__aeabi_dmul+0x164>
     560:	340c      	adds	r4, #12
     562:	dc1b      	bgt.n	59c <__aeabi_dmul+0x134>
     564:	f104 0414 	add.w	r4, r4, #20
     568:	f1c4 0520 	rsb	r5, r4, #32
     56c:	fa00 f305 	lsl.w	r3, r0, r5
     570:	fa20 f004 	lsr.w	r0, r0, r4
     574:	fa01 f205 	lsl.w	r2, r1, r5
     578:	ea40 0002 	orr.w	r0, r0, r2
     57c:	f001 4200 	and.w	r2, r1, #2147483648	; 0x80000000
     580:	f021 4100 	bic.w	r1, r1, #2147483648	; 0x80000000
     584:	eb10 70d3 	adds.w	r0, r0, r3, lsr #31
     588:	fa21 f604 	lsr.w	r6, r1, r4
     58c:	eb42 0106 	adc.w	r1, r2, r6
     590:	ea5e 0e43 	orrs.w	lr, lr, r3, lsl #1
     594:	bf08      	it	eq
     596:	ea20 70d3 	biceq.w	r0, r0, r3, lsr #31
     59a:	bd70      	pop	{r4, r5, r6, pc}
     59c:	f1c4 040c 	rsb	r4, r4, #12
     5a0:	f1c4 0520 	rsb	r5, r4, #32
     5a4:	fa00 f304 	lsl.w	r3, r0, r4
     5a8:	fa20 f005 	lsr.w	r0, r0, r5
     5ac:	fa01 f204 	lsl.w	r2, r1, r4
     5b0:	ea40 0002 	orr.w	r0, r0, r2
     5b4:	f001 4100 	and.w	r1, r1, #2147483648	; 0x80000000
     5b8:	eb10 70d3 	adds.w	r0, r0, r3, lsr #31
     5bc:	f141 0100 	adc.w	r1, r1, #0
     5c0:	ea5e 0e43 	orrs.w	lr, lr, r3, lsl #1
     5c4:	bf08      	it	eq
     5c6:	ea20 70d3 	biceq.w	r0, r0, r3, lsr #31
     5ca:	bd70      	pop	{r4, r5, r6, pc}
     5cc:	f1c4 0520 	rsb	r5, r4, #32
     5d0:	fa00 f205 	lsl.w	r2, r0, r5
     5d4:	ea4e 0e02 	orr.w	lr, lr, r2
     5d8:	fa20 f304 	lsr.w	r3, r0, r4
     5dc:	fa01 f205 	lsl.w	r2, r1, r5
     5e0:	ea43 0302 	orr.w	r3, r3, r2
     5e4:	fa21 f004 	lsr.w	r0, r1, r4
     5e8:	f001 4100 	and.w	r1, r1, #2147483648	; 0x80000000
     5ec:	fa21 f204 	lsr.w	r2, r1, r4
     5f0:	ea20 0002 	bic.w	r0, r0, r2
     5f4:	eb00 70d3 	add.w	r0, r0, r3, lsr #31
     5f8:	ea5e 0e43 	orrs.w	lr, lr, r3, lsl #1
     5fc:	bf08      	it	eq
     5fe:	ea20 70d3 	biceq.w	r0, r0, r3, lsr #31
     602:	bd70      	pop	{r4, r5, r6, pc}
     604:	f094 0f00 	teq	r4, #0
     608:	d10f      	bne.n	62a <__aeabi_dmul+0x1c2>
     60a:	f001 4600 	and.w	r6, r1, #2147483648	; 0x80000000
     60e:	0040      	lsls	r0, r0, #1
     610:	eb41 0101 	adc.w	r1, r1, r1
     614:	f411 1f80 	tst.w	r1, #1048576	; 0x100000
     618:	bf08      	it	eq
     61a:	3c01      	subeq	r4, #1
     61c:	d0f7      	beq.n	60e <__aeabi_dmul+0x1a6>
     61e:	ea41 0106 	orr.w	r1, r1, r6
     622:	f095 0f00 	teq	r5, #0
     626:	bf18      	it	ne
     628:	4770      	bxne	lr
     62a:	f003 4600 	and.w	r6, r3, #2147483648	; 0x80000000
     62e:	0052      	lsls	r2, r2, #1
     630:	eb43 0303 	adc.w	r3, r3, r3
     634:	f413 1f80 	tst.w	r3, #1048576	; 0x100000
     638:	bf08      	it	eq
     63a:	3d01      	subeq	r5, #1
     63c:	d0f7      	beq.n	62e <__aeabi_dmul+0x1c6>
     63e:	ea43 0306 	orr.w	r3, r3, r6
     642:	4770      	bx	lr
     644:	ea94 0f0c 	teq	r4, ip
     648:	ea0c 5513 	and.w	r5, ip, r3, lsr #20
     64c:	bf18      	it	ne
     64e:	ea95 0f0c 	teqne	r5, ip
     652:	d00c      	beq.n	66e <__aeabi_dmul+0x206>
     654:	ea50 0641 	orrs.w	r6, r0, r1, lsl #1
     658:	bf18      	it	ne
     65a:	ea52 0643 	orrsne.w	r6, r2, r3, lsl #1
     65e:	d1d1      	bne.n	604 <__aeabi_dmul+0x19c>
     660:	ea81 0103 	eor.w	r1, r1, r3
     664:	f001 4100 	and.w	r1, r1, #2147483648	; 0x80000000
     668:	f04f 0000 	mov.w	r0, #0
     66c:	bd70      	pop	{r4, r5, r6, pc}
     66e:	ea50 0641 	orrs.w	r6, r0, r1, lsl #1
     672:	bf06      	itte	eq
     674:	4610      	moveq	r0, r2
     676:	4619      	moveq	r1, r3
     678:	ea52 0643 	orrsne.w	r6, r2, r3, lsl #1
     67c:	d019      	beq.n	6b2 <__aeabi_dmul+0x24a>
     67e:	ea94 0f0c 	teq	r4, ip
     682:	d102      	bne.n	68a <__aeabi_dmul+0x222>
     684:	ea50 3601 	orrs.w	r6, r0, r1, lsl #12
     688:	d113      	bne.n	6b2 <__aeabi_dmul+0x24a>
     68a:	ea95 0f0c 	teq	r5, ip
     68e:	d105      	bne.n	69c <__aeabi_dmul+0x234>
     690:	ea52 3603 	orrs.w	r6, r2, r3, lsl #12
     694:	bf1c      	itt	ne
     696:	4610      	movne	r0, r2
     698:	4619      	movne	r1, r3
     69a:	d10a      	bne.n	6b2 <__aeabi_dmul+0x24a>
     69c:	ea81 0103 	eor.w	r1, r1, r3
     6a0:	f001 4100 	and.w	r1, r1, #2147483648	; 0x80000000
     6a4:	f041 41fe 	orr.w	r1, r1, #2130706432	; 0x7f000000
     6a8:	f441 0170 	orr.w	r1, r1, #15728640	; 0xf00000
     6ac:	f04f 0000 	mov.w	r0, #0
     6b0:	bd70      	pop	{r4, r5, r6, pc}
     6b2:	f041 41fe 	orr.w	r1, r1, #2130706432	; 0x7f000000
     6b6:	f441 0178 	orr.w	r1, r1, #16252928	; 0xf80000
     6ba:	bd70      	pop	{r4, r5, r6, pc}

000006bc <__aeabi_ddiv>:
     6bc:	b570      	push	{r4, r5, r6, lr}
     6be:	f04f 0cff 	mov.w	ip, #255	; 0xff
     6c2:	f44c 6ce0 	orr.w	ip, ip, #1792	; 0x700
     6c6:	ea1c 5411 	ands.w	r4, ip, r1, lsr #20
     6ca:	bf1d      	ittte	ne
     6cc:	ea1c 5513 	andsne.w	r5, ip, r3, lsr #20
     6d0:	ea94 0f0c 	teqne	r4, ip
     6d4:	ea95 0f0c 	teqne	r5, ip
     6d8:	f000 f8a7 	bleq	82a <CONFIG_ISR_STACK_SIZE+0x2a>
     6dc:	eba4 0405 	sub.w	r4, r4, r5
     6e0:	ea81 0e03 	eor.w	lr, r1, r3
     6e4:	ea52 3503 	orrs.w	r5, r2, r3, lsl #12
     6e8:	ea4f 3101 	mov.w	r1, r1, lsl #12
     6ec:	f000 8088 	beq.w	800 <CONFIG_ISR_STACK_SIZE>
     6f0:	ea4f 3303 	mov.w	r3, r3, lsl #12
     6f4:	f04f 5580 	mov.w	r5, #268435456	; 0x10000000
     6f8:	ea45 1313 	orr.w	r3, r5, r3, lsr #4
     6fc:	ea43 6312 	orr.w	r3, r3, r2, lsr #24
     700:	ea4f 2202 	mov.w	r2, r2, lsl #8
     704:	ea45 1511 	orr.w	r5, r5, r1, lsr #4
     708:	ea45 6510 	orr.w	r5, r5, r0, lsr #24
     70c:	ea4f 2600 	mov.w	r6, r0, lsl #8
     710:	f00e 4100 	and.w	r1, lr, #2147483648	; 0x80000000
     714:	429d      	cmp	r5, r3
     716:	bf08      	it	eq
     718:	4296      	cmpeq	r6, r2
     71a:	f144 04fd 	adc.w	r4, r4, #253	; 0xfd
     71e:	f504 7440 	add.w	r4, r4, #768	; 0x300
     722:	d202      	bcs.n	72a <__aeabi_ddiv+0x6e>
     724:	085b      	lsrs	r3, r3, #1
     726:	ea4f 0232 	mov.w	r2, r2, rrx
     72a:	1ab6      	subs	r6, r6, r2
     72c:	eb65 0503 	sbc.w	r5, r5, r3
     730:	085b      	lsrs	r3, r3, #1
     732:	ea4f 0232 	mov.w	r2, r2, rrx
     736:	f44f 1080 	mov.w	r0, #1048576	; 0x100000
     73a:	f44f 2c00 	mov.w	ip, #524288	; 0x80000
     73e:	ebb6 0e02 	subs.w	lr, r6, r2
     742:	eb75 0e03 	sbcs.w	lr, r5, r3
     746:	bf22      	ittt	cs
     748:	1ab6      	subcs	r6, r6, r2
     74a:	4675      	movcs	r5, lr
     74c:	ea40 000c 	orrcs.w	r0, r0, ip
     750:	085b      	lsrs	r3, r3, #1
     752:	ea4f 0232 	mov.w	r2, r2, rrx
     756:	ebb6 0e02 	subs.w	lr, r6, r2
     75a:	eb75 0e03 	sbcs.w	lr, r5, r3
     75e:	bf22      	ittt	cs
     760:	1ab6      	subcs	r6, r6, r2
     762:	4675      	movcs	r5, lr
     764:	ea40 005c 	orrcs.w	r0, r0, ip, lsr #1
     768:	085b      	lsrs	r3, r3, #1
     76a:	ea4f 0232 	mov.w	r2, r2, rrx
     76e:	ebb6 0e02 	subs.w	lr, r6, r2
     772:	eb75 0e03 	sbcs.w	lr, r5, r3
     776:	bf22      	ittt	cs
     778:	1ab6      	subcs	r6, r6, r2
     77a:	4675      	movcs	r5, lr
     77c:	ea40 009c 	orrcs.w	r0, r0, ip, lsr #2
     780:	085b      	lsrs	r3, r3, #1
     782:	ea4f 0232 	mov.w	r2, r2, rrx
     786:	ebb6 0e02 	subs.w	lr, r6, r2
     78a:	eb75 0e03 	sbcs.w	lr, r5, r3
     78e:	bf22      	ittt	cs
     790:	1ab6      	subcs	r6, r6, r2
     792:	4675      	movcs	r5, lr
     794:	ea40 00dc 	orrcs.w	r0, r0, ip, lsr #3
     798:	ea55 0e06 	orrs.w	lr, r5, r6
     79c:	d018      	beq.n	7d0 <__aeabi_ddiv+0x114>
     79e:	ea4f 1505 	mov.w	r5, r5, lsl #4
     7a2:	ea45 7516 	orr.w	r5, r5, r6, lsr #28
     7a6:	ea4f 1606 	mov.w	r6, r6, lsl #4
     7aa:	ea4f 03c3 	mov.w	r3, r3, lsl #3
     7ae:	ea43 7352 	orr.w	r3, r3, r2, lsr #29
     7b2:	ea4f 02c2 	mov.w	r2, r2, lsl #3
     7b6:	ea5f 1c1c 	movs.w	ip, ip, lsr #4
     7ba:	d1c0      	bne.n	73e <__aeabi_ddiv+0x82>
     7bc:	f411 1f80 	tst.w	r1, #1048576	; 0x100000
     7c0:	d10b      	bne.n	7da <__aeabi_ddiv+0x11e>
     7c2:	ea41 0100 	orr.w	r1, r1, r0
     7c6:	f04f 0000 	mov.w	r0, #0
     7ca:	f04f 4c00 	mov.w	ip, #2147483648	; 0x80000000
     7ce:	e7b6      	b.n	73e <__aeabi_ddiv+0x82>
     7d0:	f411 1f80 	tst.w	r1, #1048576	; 0x100000
     7d4:	bf04      	itt	eq
     7d6:	4301      	orreq	r1, r0
     7d8:	2000      	moveq	r0, #0
     7da:	f1b4 0cfd 	subs.w	ip, r4, #253	; 0xfd
     7de:	bf88      	it	hi
     7e0:	f5bc 6fe0 	cmphi.w	ip, #1792	; 0x700
     7e4:	f63f aeaf 	bhi.w	546 <__aeabi_dmul+0xde>
     7e8:	ebb5 0c03 	subs.w	ip, r5, r3
     7ec:	bf04      	itt	eq
     7ee:	ebb6 0c02 	subseq.w	ip, r6, r2
     7f2:	ea5f 0c50 	movseq.w	ip, r0, lsr #1
     7f6:	f150 0000 	adcs.w	r0, r0, #0
     7fa:	eb41 5104 	adc.w	r1, r1, r4, lsl #20
     7fe:	bd70      	pop	{r4, r5, r6, pc}
     800:	f00e 4e00 	and.w	lr, lr, #2147483648	; 0x80000000
     804:	ea4e 3111 	orr.w	r1, lr, r1, lsr #12
     808:	eb14 045c 	adds.w	r4, r4, ip, lsr #1
     80c:	bfc2      	ittt	gt
     80e:	ebd4 050c 	rsbsgt	r5, r4, ip
     812:	ea41 5104 	orrgt.w	r1, r1, r4, lsl #20
     816:	bd70      	popgt	{r4, r5, r6, pc}
     818:	f441 1180 	orr.w	r1, r1, #1048576	; 0x100000
     81c:	f04f 0e00 	mov.w	lr, #0
     820:	3c01      	subs	r4, #1
     822:	e690      	b.n	546 <__aeabi_dmul+0xde>
     824:	ea45 0e06 	orr.w	lr, r5, r6
     828:	e68d      	b.n	546 <__aeabi_dmul+0xde>
     82a:	ea0c 5513 	and.w	r5, ip, r3, lsr #20
     82e:	ea94 0f0c 	teq	r4, ip
     832:	bf08      	it	eq
     834:	ea95 0f0c 	teqeq	r5, ip
     838:	f43f af3b 	beq.w	6b2 <__aeabi_dmul+0x24a>
     83c:	ea94 0f0c 	teq	r4, ip
     840:	d10a      	bne.n	858 <CONFIG_ISR_STACK_SIZE+0x58>
     842:	ea50 3401 	orrs.w	r4, r0, r1, lsl #12
     846:	f47f af34 	bne.w	6b2 <__aeabi_dmul+0x24a>
     84a:	ea95 0f0c 	teq	r5, ip
     84e:	f47f af25 	bne.w	69c <__aeabi_dmul+0x234>
     852:	4610      	mov	r0, r2
     854:	4619      	mov	r1, r3
     856:	e72c      	b.n	6b2 <__aeabi_dmul+0x24a>
     858:	ea95 0f0c 	teq	r5, ip
     85c:	d106      	bne.n	86c <CONFIG_ISR_STACK_SIZE+0x6c>
     85e:	ea52 3503 	orrs.w	r5, r2, r3, lsl #12
     862:	f43f aefd 	beq.w	660 <__aeabi_dmul+0x1f8>
     866:	4610      	mov	r0, r2
     868:	4619      	mov	r1, r3
     86a:	e722      	b.n	6b2 <__aeabi_dmul+0x24a>
     86c:	ea50 0641 	orrs.w	r6, r0, r1, lsl #1
     870:	bf18      	it	ne
     872:	ea52 0643 	orrsne.w	r6, r2, r3, lsl #1
     876:	f47f aec5 	bne.w	604 <__aeabi_dmul+0x19c>
     87a:	ea50 0441 	orrs.w	r4, r0, r1, lsl #1
     87e:	f47f af0d 	bne.w	69c <__aeabi_dmul+0x234>
     882:	ea52 0543 	orrs.w	r5, r2, r3, lsl #1
     886:	f47f aeeb 	bne.w	660 <__aeabi_dmul+0x1f8>
     88a:	e712      	b.n	6b2 <__aeabi_dmul+0x24a>

0000088c <__gedf2>:
     88c:	f04f 3cff 	mov.w	ip, #4294967295	; 0xffffffff
     890:	e006      	b.n	8a0 <__cmpdf2+0x4>
     892:	bf00      	nop

00000894 <__ledf2>:
     894:	f04f 0c01 	mov.w	ip, #1
     898:	e002      	b.n	8a0 <__cmpdf2+0x4>
     89a:	bf00      	nop

0000089c <__cmpdf2>:
     89c:	f04f 0c01 	mov.w	ip, #1
     8a0:	f84d cd04 	str.w	ip, [sp, #-4]!
     8a4:	ea4f 0c41 	mov.w	ip, r1, lsl #1
     8a8:	ea7f 5c6c 	mvns.w	ip, ip, asr #21
     8ac:	ea4f 0c43 	mov.w	ip, r3, lsl #1
     8b0:	bf18      	it	ne
     8b2:	ea7f 5c6c 	mvnsne.w	ip, ip, asr #21
     8b6:	d01b      	beq.n	8f0 <__cmpdf2+0x54>
     8b8:	b001      	add	sp, #4
     8ba:	ea50 0c41 	orrs.w	ip, r0, r1, lsl #1
     8be:	bf0c      	ite	eq
     8c0:	ea52 0c43 	orrseq.w	ip, r2, r3, lsl #1
     8c4:	ea91 0f03 	teqne	r1, r3
     8c8:	bf02      	ittt	eq
     8ca:	ea90 0f02 	teqeq	r0, r2
     8ce:	2000      	moveq	r0, #0
     8d0:	4770      	bxeq	lr
     8d2:	f110 0f00 	cmn.w	r0, #0
     8d6:	ea91 0f03 	teq	r1, r3
     8da:	bf58      	it	pl
     8dc:	4299      	cmppl	r1, r3
     8de:	bf08      	it	eq
     8e0:	4290      	cmpeq	r0, r2
     8e2:	bf2c      	ite	cs
     8e4:	17d8      	asrcs	r0, r3, #31
     8e6:	ea6f 70e3 	mvncc.w	r0, r3, asr #31
     8ea:	f040 0001 	orr.w	r0, r0, #1
     8ee:	4770      	bx	lr
     8f0:	ea4f 0c41 	mov.w	ip, r1, lsl #1
     8f4:	ea7f 5c6c 	mvns.w	ip, ip, asr #21
     8f8:	d102      	bne.n	900 <__cmpdf2+0x64>
     8fa:	ea50 3c01 	orrs.w	ip, r0, r1, lsl #12
     8fe:	d107      	bne.n	910 <__cmpdf2+0x74>
     900:	ea4f 0c43 	mov.w	ip, r3, lsl #1
     904:	ea7f 5c6c 	mvns.w	ip, ip, asr #21
     908:	d1d6      	bne.n	8b8 <__cmpdf2+0x1c>
     90a:	ea52 3c03 	orrs.w	ip, r2, r3, lsl #12
     90e:	d0d3      	beq.n	8b8 <__cmpdf2+0x1c>
     910:	f85d 0b04 	ldr.w	r0, [sp], #4
     914:	4770      	bx	lr
     916:	bf00      	nop

00000918 <__aeabi_cdrcmple>:
     918:	4684      	mov	ip, r0
     91a:	4610      	mov	r0, r2
     91c:	4662      	mov	r2, ip
     91e:	468c      	mov	ip, r1
     920:	4619      	mov	r1, r3
     922:	4663      	mov	r3, ip
     924:	e000      	b.n	928 <__aeabi_cdcmpeq>
     926:	bf00      	nop

00000928 <__aeabi_cdcmpeq>:
     928:	b501      	push	{r0, lr}
     92a:	f7ff ffb7 	bl	89c <__cmpdf2>
     92e:	2800      	cmp	r0, #0
     930:	bf48      	it	mi
     932:	f110 0f00 	cmnmi.w	r0, #0
     936:	bd01      	pop	{r0, pc}

00000938 <__aeabi_dcmpeq>:
     938:	f84d ed08 	str.w	lr, [sp, #-8]!
     93c:	f7ff fff4 	bl	928 <__aeabi_cdcmpeq>
     940:	bf0c      	ite	eq
     942:	2001      	moveq	r0, #1
     944:	2000      	movne	r0, #0
     946:	f85d fb08 	ldr.w	pc, [sp], #8
     94a:	bf00      	nop

0000094c <__aeabi_dcmplt>:
     94c:	f84d ed08 	str.w	lr, [sp, #-8]!
     950:	f7ff ffea 	bl	928 <__aeabi_cdcmpeq>
     954:	bf34      	ite	cc
     956:	2001      	movcc	r0, #1
     958:	2000      	movcs	r0, #0
     95a:	f85d fb08 	ldr.w	pc, [sp], #8
     95e:	bf00      	nop

00000960 <__aeabi_dcmple>:
     960:	f84d ed08 	str.w	lr, [sp, #-8]!
     964:	f7ff ffe0 	bl	928 <__aeabi_cdcmpeq>
     968:	bf94      	ite	ls
     96a:	2001      	movls	r0, #1
     96c:	2000      	movhi	r0, #0
     96e:	f85d fb08 	ldr.w	pc, [sp], #8
     972:	bf00      	nop

00000974 <__aeabi_dcmpge>:
     974:	f84d ed08 	str.w	lr, [sp, #-8]!
     978:	f7ff ffce 	bl	918 <__aeabi_cdrcmple>
     97c:	bf94      	ite	ls
     97e:	2001      	movls	r0, #1
     980:	2000      	movhi	r0, #0
     982:	f85d fb08 	ldr.w	pc, [sp], #8
     986:	bf00      	nop

00000988 <__aeabi_dcmpgt>:
     988:	f84d ed08 	str.w	lr, [sp, #-8]!
     98c:	f7ff ffc4 	bl	918 <__aeabi_cdrcmple>
     990:	bf34      	ite	cc
     992:	2001      	movcc	r0, #1
     994:	2000      	movcs	r0, #0
     996:	f85d fb08 	ldr.w	pc, [sp], #8
     99a:	bf00      	nop

0000099c <__aeabi_ldivmod>:
     99c:	b97b      	cbnz	r3, 9be <__aeabi_ldivmod+0x22>
     99e:	b972      	cbnz	r2, 9be <__aeabi_ldivmod+0x22>
     9a0:	2900      	cmp	r1, #0
     9a2:	bfbe      	ittt	lt
     9a4:	2000      	movlt	r0, #0
     9a6:	f04f 4100 	movlt.w	r1, #2147483648	; 0x80000000
     9aa:	e006      	blt.n	9ba <__aeabi_ldivmod+0x1e>
     9ac:	bf08      	it	eq
     9ae:	2800      	cmpeq	r0, #0
     9b0:	bf1c      	itt	ne
     9b2:	f06f 4100 	mvnne.w	r1, #2147483648	; 0x80000000
     9b6:	f04f 30ff 	movne.w	r0, #4294967295	; 0xffffffff
     9ba:	f000 b875 	b.w	aa8 <__aeabi_idiv0>
     9be:	f1ad 0c08 	sub.w	ip, sp, #8
     9c2:	e96d ce04 	strd	ip, lr, [sp, #-16]!
     9c6:	2900      	cmp	r1, #0
     9c8:	db09      	blt.n	9de <__aeabi_ldivmod+0x42>
     9ca:	2b00      	cmp	r3, #0
     9cc:	db1a      	blt.n	a04 <__aeabi_ldivmod+0x68>
     9ce:	f000 f8f2 	bl	bb6 <__udivmoddi4>
     9d2:	f8dd e004 	ldr.w	lr, [sp, #4]
     9d6:	e9dd 2302 	ldrd	r2, r3, [sp, #8]
     9da:	b004      	add	sp, #16
     9dc:	4770      	bx	lr
     9de:	4240      	negs	r0, r0
     9e0:	eb61 0141 	sbc.w	r1, r1, r1, lsl #1
     9e4:	2b00      	cmp	r3, #0
     9e6:	db1b      	blt.n	a20 <__aeabi_ldivmod+0x84>
     9e8:	f000 f8e5 	bl	bb6 <__udivmoddi4>
     9ec:	f8dd e004 	ldr.w	lr, [sp, #4]
     9f0:	e9dd 2302 	ldrd	r2, r3, [sp, #8]
     9f4:	b004      	add	sp, #16
     9f6:	4240      	negs	r0, r0
     9f8:	eb61 0141 	sbc.w	r1, r1, r1, lsl #1
     9fc:	4252      	negs	r2, r2
     9fe:	eb63 0343 	sbc.w	r3, r3, r3, lsl #1
     a02:	4770      	bx	lr
     a04:	4252      	negs	r2, r2
     a06:	eb63 0343 	sbc.w	r3, r3, r3, lsl #1
     a0a:	f000 f8d4 	bl	bb6 <__udivmoddi4>
     a0e:	f8dd e004 	ldr.w	lr, [sp, #4]
     a12:	e9dd 2302 	ldrd	r2, r3, [sp, #8]
     a16:	b004      	add	sp, #16
     a18:	4240      	negs	r0, r0
     a1a:	eb61 0141 	sbc.w	r1, r1, r1, lsl #1
     a1e:	4770      	bx	lr
     a20:	4252      	negs	r2, r2
     a22:	eb63 0343 	sbc.w	r3, r3, r3, lsl #1
     a26:	f000 f8c6 	bl	bb6 <__udivmoddi4>
     a2a:	f8dd e004 	ldr.w	lr, [sp, #4]
     a2e:	e9dd 2302 	ldrd	r2, r3, [sp, #8]
     a32:	b004      	add	sp, #16
     a34:	4252      	negs	r2, r2
     a36:	eb63 0343 	sbc.w	r3, r3, r3, lsl #1
     a3a:	4770      	bx	lr

00000a3c <__aeabi_uldivmod>:
     a3c:	b953      	cbnz	r3, a54 <__aeabi_uldivmod+0x18>
     a3e:	b94a      	cbnz	r2, a54 <__aeabi_uldivmod+0x18>
     a40:	2900      	cmp	r1, #0
     a42:	bf08      	it	eq
     a44:	2800      	cmpeq	r0, #0
     a46:	bf1c      	itt	ne
     a48:	f04f 31ff 	movne.w	r1, #4294967295	; 0xffffffff
     a4c:	f04f 30ff 	movne.w	r0, #4294967295	; 0xffffffff
     a50:	f000 b82a 	b.w	aa8 <__aeabi_idiv0>
     a54:	f1ad 0c08 	sub.w	ip, sp, #8
     a58:	e96d ce04 	strd	ip, lr, [sp, #-16]!
     a5c:	f000 f8ab 	bl	bb6 <__udivmoddi4>
     a60:	f8dd e004 	ldr.w	lr, [sp, #4]
     a64:	e9dd 2302 	ldrd	r2, r3, [sp, #8]
     a68:	b004      	add	sp, #16
     a6a:	4770      	bx	lr

00000a6c <__aeabi_d2ulz>:
     a6c:	b5d0      	push	{r4, r6, r7, lr}
     a6e:	2200      	movs	r2, #0
     a70:	4b0b      	ldr	r3, [pc, #44]	; (aa0 <__aeabi_d2ulz+0x34>)
     a72:	4606      	mov	r6, r0
     a74:	460f      	mov	r7, r1
     a76:	f7ff fcf7 	bl	468 <__aeabi_dmul>
     a7a:	f000 f817 	bl	aac <__aeabi_d2uiz>
     a7e:	4604      	mov	r4, r0
     a80:	f7ff fc78 	bl	374 <__aeabi_ui2d>
     a84:	2200      	movs	r2, #0
     a86:	4b07      	ldr	r3, [pc, #28]	; (aa4 <__aeabi_d2ulz+0x38>)
     a88:	f7ff fcee 	bl	468 <__aeabi_dmul>
     a8c:	4602      	mov	r2, r0
     a8e:	460b      	mov	r3, r1
     a90:	4630      	mov	r0, r6
     a92:	4639      	mov	r1, r7
     a94:	f7ff fb30 	bl	f8 <__aeabi_dsub>
     a98:	f000 f808 	bl	aac <__aeabi_d2uiz>
     a9c:	4621      	mov	r1, r4
     a9e:	bdd0      	pop	{r4, r6, r7, pc}
     aa0:	3df00000 	.word	0x3df00000
     aa4:	41f00000 	.word	0x41f00000

00000aa8 <__aeabi_idiv0>:
     aa8:	4770      	bx	lr
     aaa:	bf00      	nop

00000aac <__aeabi_d2uiz>:
     aac:	004a      	lsls	r2, r1, #1
     aae:	d211      	bcs.n	ad4 <__aeabi_d2uiz+0x28>
     ab0:	f512 1200 	adds.w	r2, r2, #2097152	; 0x200000
     ab4:	d211      	bcs.n	ada <__aeabi_d2uiz+0x2e>
     ab6:	d50d      	bpl.n	ad4 <__aeabi_d2uiz+0x28>
     ab8:	f46f 7378 	mvn.w	r3, #992	; 0x3e0
     abc:	ebb3 5262 	subs.w	r2, r3, r2, asr #21
     ac0:	d40e      	bmi.n	ae0 <__aeabi_d2uiz+0x34>
     ac2:	ea4f 23c1 	mov.w	r3, r1, lsl #11
     ac6:	f043 4300 	orr.w	r3, r3, #2147483648	; 0x80000000
     aca:	ea43 5350 	orr.w	r3, r3, r0, lsr #21
     ace:	fa23 f002 	lsr.w	r0, r3, r2
     ad2:	4770      	bx	lr
     ad4:	f04f 0000 	mov.w	r0, #0
     ad8:	4770      	bx	lr
     ada:	ea50 3001 	orrs.w	r0, r0, r1, lsl #12
     ade:	d102      	bne.n	ae6 <__aeabi_d2uiz+0x3a>
     ae0:	f04f 30ff 	mov.w	r0, #4294967295	; 0xffffffff
     ae4:	4770      	bx	lr
     ae6:	f04f 0000 	mov.w	r0, #0
     aea:	4770      	bx	lr

00000aec <setjmp>:
     aec:	46ec      	mov	ip, sp
     aee:	e8a0 5ff0 	stmia.w	r0!, {r4, r5, r6, r7, r8, r9, sl, fp, ip, lr}
     af2:	f04f 0000 	mov.w	r0, #0
     af6:	4770      	bx	lr

00000af8 <longjmp>:
     af8:	e8b0 5ff0 	ldmia.w	r0!, {r4, r5, r6, r7, r8, r9, sl, fp, ip, lr}
     afc:	46e5      	mov	sp, ip
     afe:	0008      	movs	r0, r1
     b00:	bf08      	it	eq
     b02:	2001      	moveq	r0, #1
     b04:	4770      	bx	lr
     b06:	bf00      	nop

00000b08 <__aeabi_dcmpun>:
     b08:	ea4f 0c41 	mov.w	ip, r1, lsl #1
     b0c:	ea7f 5c6c 	mvns.w	ip, ip, asr #21
     b10:	d102      	bne.n	b18 <__aeabi_dcmpun+0x10>
     b12:	ea50 3c01 	orrs.w	ip, r0, r1, lsl #12
     b16:	d10a      	bne.n	b2e <__aeabi_dcmpun+0x26>
     b18:	ea4f 0c43 	mov.w	ip, r3, lsl #1
     b1c:	ea7f 5c6c 	mvns.w	ip, ip, asr #21
     b20:	d102      	bne.n	b28 <__aeabi_dcmpun+0x20>
     b22:	ea52 3c03 	orrs.w	ip, r2, r3, lsl #12
     b26:	d102      	bne.n	b2e <__aeabi_dcmpun+0x26>
     b28:	f04f 0000 	mov.w	r0, #0
     b2c:	4770      	bx	lr
     b2e:	f04f 0001 	mov.w	r0, #1
     b32:	4770      	bx	lr

00000b34 <__aeabi_d2iz>:
     b34:	ea4f 0241 	mov.w	r2, r1, lsl #1
     b38:	f512 1200 	adds.w	r2, r2, #2097152	; 0x200000
     b3c:	d215      	bcs.n	b6a <__aeabi_d2iz+0x36>
     b3e:	d511      	bpl.n	b64 <__aeabi_d2iz+0x30>
     b40:	f46f 7378 	mvn.w	r3, #992	; 0x3e0
     b44:	ebb3 5262 	subs.w	r2, r3, r2, asr #21
     b48:	d912      	bls.n	b70 <__aeabi_d2iz+0x3c>
     b4a:	ea4f 23c1 	mov.w	r3, r1, lsl #11
     b4e:	f043 4300 	orr.w	r3, r3, #2147483648	; 0x80000000
     b52:	ea43 5350 	orr.w	r3, r3, r0, lsr #21
     b56:	f011 4f00 	tst.w	r1, #2147483648	; 0x80000000
     b5a:	fa23 f002 	lsr.w	r0, r3, r2
     b5e:	bf18      	it	ne
     b60:	4240      	negne	r0, r0
     b62:	4770      	bx	lr
     b64:	f04f 0000 	mov.w	r0, #0
     b68:	4770      	bx	lr
     b6a:	ea50 3001 	orrs.w	r0, r0, r1, lsl #12
     b6e:	d105      	bne.n	b7c <__aeabi_d2iz+0x48>
     b70:	f011 4000 	ands.w	r0, r1, #2147483648	; 0x80000000
     b74:	bf08      	it	eq
     b76:	f06f 4000 	mvneq.w	r0, #2147483648	; 0x80000000
     b7a:	4770      	bx	lr
     b7c:	f04f 0000 	mov.w	r0, #0
     b80:	4770      	bx	lr
     b82:	bf00      	nop

00000b84 <__aeabi_d2lz>:
     b84:	b538      	push	{r3, r4, r5, lr}
     b86:	4605      	mov	r5, r0
     b88:	460c      	mov	r4, r1
     b8a:	2200      	movs	r2, #0
     b8c:	2300      	movs	r3, #0
     b8e:	4628      	mov	r0, r5
     b90:	4621      	mov	r1, r4
     b92:	f7ff fedb 	bl	94c <__aeabi_dcmplt>
     b96:	b928      	cbnz	r0, ba4 <__aeabi_d2lz+0x20>
     b98:	4628      	mov	r0, r5
     b9a:	4621      	mov	r1, r4
     b9c:	e8bd 4038 	ldmia.w	sp!, {r3, r4, r5, lr}
     ba0:	f7ff bf64 	b.w	a6c <__aeabi_d2ulz>
     ba4:	4628      	mov	r0, r5
     ba6:	f104 4100 	add.w	r1, r4, #2147483648	; 0x80000000
     baa:	f7ff ff5f 	bl	a6c <__aeabi_d2ulz>
     bae:	4240      	negs	r0, r0
     bb0:	eb61 0141 	sbc.w	r1, r1, r1, lsl #1
     bb4:	bd38      	pop	{r3, r4, r5, pc}

00000bb6 <__udivmoddi4>:
     bb6:	e92d 4ff0 	stmdb	sp!, {r4, r5, r6, r7, r8, r9, sl, fp, lr}
     bba:	4607      	mov	r7, r0
     bbc:	468c      	mov	ip, r1
     bbe:	4608      	mov	r0, r1
     bc0:	4615      	mov	r5, r2
     bc2:	463c      	mov	r4, r7
     bc4:	4619      	mov	r1, r3
     bc6:	9e09      	ldr	r6, [sp, #36]	; 0x24
     bc8:	2b00      	cmp	r3, #0
     bca:	f040 80c6 	bne.w	d5a <__udivmoddi4+0x1a4>
     bce:	4282      	cmp	r2, r0
     bd0:	fab2 f782 	clz	r7, r2
     bd4:	d946      	bls.n	c64 <__udivmoddi4+0xae>
     bd6:	b14f      	cbz	r7, bec <__udivmoddi4+0x36>
     bd8:	f1c7 0e20 	rsb	lr, r7, #32
     bdc:	fa24 fe0e 	lsr.w	lr, r4, lr
     be0:	fa00 f307 	lsl.w	r3, r0, r7
     be4:	40bd      	lsls	r5, r7
     be6:	ea4e 0c03 	orr.w	ip, lr, r3
     bea:	40bc      	lsls	r4, r7
     bec:	ea4f 4815 	mov.w	r8, r5, lsr #16
     bf0:	fbbc f9f8 	udiv	r9, ip, r8
     bf4:	fa1f fe85 	uxth.w	lr, r5
     bf8:	fb08 c319 	mls	r3, r8, r9, ip
     bfc:	fb09 fa0e 	mul.w	sl, r9, lr
     c00:	0c22      	lsrs	r2, r4, #16
     c02:	ea42 4303 	orr.w	r3, r2, r3, lsl #16
     c06:	459a      	cmp	sl, r3
     c08:	d928      	bls.n	c5c <__udivmoddi4+0xa6>
     c0a:	18eb      	adds	r3, r5, r3
     c0c:	f109 30ff 	add.w	r0, r9, #4294967295	; 0xffffffff
     c10:	d204      	bcs.n	c1c <__udivmoddi4+0x66>
     c12:	459a      	cmp	sl, r3
     c14:	d902      	bls.n	c1c <__udivmoddi4+0x66>
     c16:	f1a9 0002 	sub.w	r0, r9, #2
     c1a:	442b      	add	r3, r5
     c1c:	eba3 030a 	sub.w	r3, r3, sl
     c20:	fbb3 f2f8 	udiv	r2, r3, r8
     c24:	fb08 3312 	mls	r3, r8, r2, r3
     c28:	fb02 fe0e 	mul.w	lr, r2, lr
     c2c:	b2a4      	uxth	r4, r4
     c2e:	ea44 4403 	orr.w	r4, r4, r3, lsl #16
     c32:	45a6      	cmp	lr, r4
     c34:	d914      	bls.n	c60 <__udivmoddi4+0xaa>
     c36:	192c      	adds	r4, r5, r4
     c38:	f102 33ff 	add.w	r3, r2, #4294967295	; 0xffffffff
     c3c:	d203      	bcs.n	c46 <__udivmoddi4+0x90>
     c3e:	45a6      	cmp	lr, r4
     c40:	d901      	bls.n	c46 <__udivmoddi4+0x90>
     c42:	1e93      	subs	r3, r2, #2
     c44:	442c      	add	r4, r5
     c46:	eba4 040e 	sub.w	r4, r4, lr
     c4a:	ea43 4000 	orr.w	r0, r3, r0, lsl #16
     c4e:	b11e      	cbz	r6, c58 <__udivmoddi4+0xa2>
     c50:	2300      	movs	r3, #0
     c52:	40fc      	lsrs	r4, r7
     c54:	6034      	str	r4, [r6, #0]
     c56:	6073      	str	r3, [r6, #4]
     c58:	e8bd 8ff0 	ldmia.w	sp!, {r4, r5, r6, r7, r8, r9, sl, fp, pc}
     c5c:	4648      	mov	r0, r9
     c5e:	e7dd      	b.n	c1c <__udivmoddi4+0x66>
     c60:	4613      	mov	r3, r2
     c62:	e7f0      	b.n	c46 <__udivmoddi4+0x90>
     c64:	b902      	cbnz	r2, c68 <__udivmoddi4+0xb2>
     c66:	deff      	udf	#255	; 0xff
     c68:	bb87      	cbnz	r7, ccc <__udivmoddi4+0x116>
     c6a:	2101      	movs	r1, #1
     c6c:	1a83      	subs	r3, r0, r2
     c6e:	ea4f 4e15 	mov.w	lr, r5, lsr #16
     c72:	fbb3 fcfe 	udiv	ip, r3, lr
     c76:	b2aa      	uxth	r2, r5
     c78:	fb0e 331c 	mls	r3, lr, ip, r3
     c7c:	fb0c f802 	mul.w	r8, ip, r2
     c80:	0c20      	lsrs	r0, r4, #16
     c82:	ea40 4303 	orr.w	r3, r0, r3, lsl #16
     c86:	4598      	cmp	r8, r3
     c88:	d963      	bls.n	d52 <__udivmoddi4+0x19c>
     c8a:	18eb      	adds	r3, r5, r3
     c8c:	f10c 30ff 	add.w	r0, ip, #4294967295	; 0xffffffff
     c90:	d204      	bcs.n	c9c <__udivmoddi4+0xe6>
     c92:	4598      	cmp	r8, r3
     c94:	d902      	bls.n	c9c <__udivmoddi4+0xe6>
     c96:	f1ac 0002 	sub.w	r0, ip, #2
     c9a:	442b      	add	r3, r5
     c9c:	eba3 0308 	sub.w	r3, r3, r8
     ca0:	fbb3 fcfe 	udiv	ip, r3, lr
     ca4:	fb0e 331c 	mls	r3, lr, ip, r3
     ca8:	fb0c f202 	mul.w	r2, ip, r2
     cac:	b2a4      	uxth	r4, r4
     cae:	ea44 4403 	orr.w	r4, r4, r3, lsl #16
     cb2:	42a2      	cmp	r2, r4
     cb4:	d94f      	bls.n	d56 <__udivmoddi4+0x1a0>
     cb6:	192c      	adds	r4, r5, r4
     cb8:	f10c 33ff 	add.w	r3, ip, #4294967295	; 0xffffffff
     cbc:	d204      	bcs.n	cc8 <__udivmoddi4+0x112>
     cbe:	42a2      	cmp	r2, r4
     cc0:	d902      	bls.n	cc8 <__udivmoddi4+0x112>
     cc2:	f1ac 0302 	sub.w	r3, ip, #2
     cc6:	442c      	add	r4, r5
     cc8:	1aa4      	subs	r4, r4, r2
     cca:	e7be      	b.n	c4a <__udivmoddi4+0x94>
     ccc:	f1c7 0c20 	rsb	ip, r7, #32
     cd0:	40bd      	lsls	r5, r7
     cd2:	fa20 f80c 	lsr.w	r8, r0, ip
     cd6:	fa00 f307 	lsl.w	r3, r0, r7
     cda:	fa24 fc0c 	lsr.w	ip, r4, ip
     cde:	ea4f 4e15 	mov.w	lr, r5, lsr #16
     ce2:	ea4c 0203 	orr.w	r2, ip, r3
     ce6:	fbb8 fcfe 	udiv	ip, r8, lr
     cea:	b2ab      	uxth	r3, r5
     cec:	fb0e 801c 	mls	r0, lr, ip, r8
     cf0:	fb0c f903 	mul.w	r9, ip, r3
     cf4:	0c11      	lsrs	r1, r2, #16
     cf6:	ea41 4000 	orr.w	r0, r1, r0, lsl #16
     cfa:	4581      	cmp	r9, r0
     cfc:	fa04 f407 	lsl.w	r4, r4, r7
     d00:	d923      	bls.n	d4a <__udivmoddi4+0x194>
     d02:	1828      	adds	r0, r5, r0
     d04:	f10c 31ff 	add.w	r1, ip, #4294967295	; 0xffffffff
     d08:	d204      	bcs.n	d14 <__udivmoddi4+0x15e>
     d0a:	4581      	cmp	r9, r0
     d0c:	d902      	bls.n	d14 <__udivmoddi4+0x15e>
     d0e:	f1ac 0102 	sub.w	r1, ip, #2
     d12:	4428      	add	r0, r5
     d14:	eba0 0009 	sub.w	r0, r0, r9
     d18:	fbb0 fcfe 	udiv	ip, r0, lr
     d1c:	fb0e 001c 	mls	r0, lr, ip, r0
     d20:	fb0c f803 	mul.w	r8, ip, r3
     d24:	b292      	uxth	r2, r2
     d26:	ea42 4300 	orr.w	r3, r2, r0, lsl #16
     d2a:	4598      	cmp	r8, r3
     d2c:	d90f      	bls.n	d4e <__udivmoddi4+0x198>
     d2e:	18eb      	adds	r3, r5, r3
     d30:	f10c 32ff 	add.w	r2, ip, #4294967295	; 0xffffffff
     d34:	d204      	bcs.n	d40 <__udivmoddi4+0x18a>
     d36:	4598      	cmp	r8, r3
     d38:	d902      	bls.n	d40 <__udivmoddi4+0x18a>
     d3a:	f1ac 0202 	sub.w	r2, ip, #2
     d3e:	442b      	add	r3, r5
     d40:	eba3 0308 	sub.w	r3, r3, r8
     d44:	ea42 4101 	orr.w	r1, r2, r1, lsl #16
     d48:	e791      	b.n	c6e <__udivmoddi4+0xb8>
     d4a:	4661      	mov	r1, ip
     d4c:	e7e2      	b.n	d14 <__udivmoddi4+0x15e>
     d4e:	4662      	mov	r2, ip
     d50:	e7f6      	b.n	d40 <__udivmoddi4+0x18a>
     d52:	4660      	mov	r0, ip
     d54:	e7a2      	b.n	c9c <__udivmoddi4+0xe6>
     d56:	4663      	mov	r3, ip
     d58:	e7b6      	b.n	cc8 <__udivmoddi4+0x112>
     d5a:	4283      	cmp	r3, r0
     d5c:	d905      	bls.n	d6a <__udivmoddi4+0x1b4>
     d5e:	b10e      	cbz	r6, d64 <__udivmoddi4+0x1ae>
     d60:	e9c6 7000 	strd	r7, r0, [r6]
     d64:	2100      	movs	r1, #0
     d66:	4608      	mov	r0, r1
     d68:	e776      	b.n	c58 <__udivmoddi4+0xa2>
     d6a:	fab3 f183 	clz	r1, r3
     d6e:	b981      	cbnz	r1, d92 <__udivmoddi4+0x1dc>
     d70:	4283      	cmp	r3, r0
     d72:	d301      	bcc.n	d78 <__udivmoddi4+0x1c2>
     d74:	42ba      	cmp	r2, r7
     d76:	d80a      	bhi.n	d8e <__udivmoddi4+0x1d8>
     d78:	1abc      	subs	r4, r7, r2
     d7a:	eb60 0303 	sbc.w	r3, r0, r3
     d7e:	2001      	movs	r0, #1
     d80:	469c      	mov	ip, r3
     d82:	2e00      	cmp	r6, #0
     d84:	d068      	beq.n	e58 <__udivmoddi4+0x2a2>
     d86:	e9c6 4c00 	strd	r4, ip, [r6]
     d8a:	2100      	movs	r1, #0
     d8c:	e764      	b.n	c58 <__udivmoddi4+0xa2>
     d8e:	4608      	mov	r0, r1
     d90:	e7f7      	b.n	d82 <__udivmoddi4+0x1cc>
     d92:	f1c1 0c20 	rsb	ip, r1, #32
     d96:	408b      	lsls	r3, r1
     d98:	fa22 f40c 	lsr.w	r4, r2, ip
     d9c:	431c      	orrs	r4, r3
     d9e:	fa20 fb0c 	lsr.w	fp, r0, ip
     da2:	ea4f 4914 	mov.w	r9, r4, lsr #16
     da6:	fbbb f8f9 	udiv	r8, fp, r9
     daa:	fa1f fe84 	uxth.w	lr, r4
     dae:	fb09 bb18 	mls	fp, r9, r8, fp
     db2:	fb08 fa0e 	mul.w	sl, r8, lr
     db6:	fa02 f501 	lsl.w	r5, r2, r1
     dba:	fa00 f301 	lsl.w	r3, r0, r1
     dbe:	fa27 f20c 	lsr.w	r2, r7, ip
     dc2:	4313      	orrs	r3, r2
     dc4:	0c1a      	lsrs	r2, r3, #16
     dc6:	ea42 420b 	orr.w	r2, r2, fp, lsl #16
     dca:	4592      	cmp	sl, r2
     dcc:	fa07 f701 	lsl.w	r7, r7, r1
     dd0:	d93e      	bls.n	e50 <__udivmoddi4+0x29a>
     dd2:	18a2      	adds	r2, r4, r2
     dd4:	f108 30ff 	add.w	r0, r8, #4294967295	; 0xffffffff
     dd8:	d204      	bcs.n	de4 <__udivmoddi4+0x22e>
     dda:	4592      	cmp	sl, r2
     ddc:	d902      	bls.n	de4 <__udivmoddi4+0x22e>
     dde:	f1a8 0002 	sub.w	r0, r8, #2
     de2:	4422      	add	r2, r4
     de4:	eba2 020a 	sub.w	r2, r2, sl
     de8:	fbb2 f8f9 	udiv	r8, r2, r9
     dec:	fb09 2218 	mls	r2, r9, r8, r2
     df0:	fb08 fe0e 	mul.w	lr, r8, lr
     df4:	b29b      	uxth	r3, r3
     df6:	ea43 4202 	orr.w	r2, r3, r2, lsl #16
     dfa:	4596      	cmp	lr, r2
     dfc:	d92a      	bls.n	e54 <__udivmoddi4+0x29e>
     dfe:	18a2      	adds	r2, r4, r2
     e00:	f108 33ff 	add.w	r3, r8, #4294967295	; 0xffffffff
     e04:	d204      	bcs.n	e10 <__udivmoddi4+0x25a>
     e06:	4596      	cmp	lr, r2
     e08:	d902      	bls.n	e10 <__udivmoddi4+0x25a>
     e0a:	f1a8 0302 	sub.w	r3, r8, #2
     e0e:	4422      	add	r2, r4
     e10:	ea43 4000 	orr.w	r0, r3, r0, lsl #16
     e14:	fba0 9305 	umull	r9, r3, r0, r5
     e18:	eba2 020e 	sub.w	r2, r2, lr
     e1c:	429a      	cmp	r2, r3
     e1e:	46ce      	mov	lr, r9
     e20:	4698      	mov	r8, r3
     e22:	d302      	bcc.n	e2a <__udivmoddi4+0x274>
     e24:	d106      	bne.n	e34 <__udivmoddi4+0x27e>
     e26:	454f      	cmp	r7, r9
     e28:	d204      	bcs.n	e34 <__udivmoddi4+0x27e>
     e2a:	ebb9 0e05 	subs.w	lr, r9, r5
     e2e:	eb63 0804 	sbc.w	r8, r3, r4
     e32:	3801      	subs	r0, #1
     e34:	b186      	cbz	r6, e58 <__udivmoddi4+0x2a2>
     e36:	ebb7 030e 	subs.w	r3, r7, lr
     e3a:	eb62 0708 	sbc.w	r7, r2, r8
     e3e:	fa07 fc0c 	lsl.w	ip, r7, ip
     e42:	40cb      	lsrs	r3, r1
     e44:	ea4c 0303 	orr.w	r3, ip, r3
     e48:	40cf      	lsrs	r7, r1
     e4a:	e9c6 3700 	strd	r3, r7, [r6]
     e4e:	e79c      	b.n	d8a <__udivmoddi4+0x1d4>
     e50:	4640      	mov	r0, r8
     e52:	e7c7      	b.n	de4 <__udivmoddi4+0x22e>
     e54:	4643      	mov	r3, r8
     e56:	e7db      	b.n	e10 <__udivmoddi4+0x25a>
     e58:	4631      	mov	r1, r6
     e5a:	e6fd      	b.n	c58 <__udivmoddi4+0xa2>

00000e5c <strcmp>:
     e5c:	f810 2b01 	ldrb.w	r2, [r0], #1
     e60:	f811 3b01 	ldrb.w	r3, [r1], #1
     e64:	2a01      	cmp	r2, #1
     e66:	bf28      	it	cs
     e68:	429a      	cmpcs	r2, r3
     e6a:	d0f7      	beq.n	e5c <strcmp>
     e6c:	1ad0      	subs	r0, r2, r3
     e6e:	4770      	bx	lr

00000e70 <strlen>:
     e70:	4603      	mov	r3, r0
     e72:	f813 2b01 	ldrb.w	r2, [r3], #1
     e76:	2a00      	cmp	r2, #0
     e78:	d1fb      	bne.n	e72 <strlen+0x2>
     e7a:	1a18      	subs	r0, r3, r0
     e7c:	3801      	subs	r0, #1
     e7e:	4770      	bx	lr

00000e80 <luaU_undump>:


/*
** Load precompiled chunk.
*/
LClosure *luaU_undump(lua_State *L, ZIO *Z, const char *name) {
     e80:	b530      	push	{r4, r5, lr}
  LoadState S;
  LClosure *cl;
  if (*name == '@' || *name == '=')
     e82:	7813      	ldrb	r3, [r2, #0]
LClosure *luaU_undump(lua_State *L, ZIO *Z, const char *name) {
     e84:	4605      	mov	r5, r0
  if (*name == '@' || *name == '=')
     e86:	2b40      	cmp	r3, #64	; 0x40
LClosure *luaU_undump(lua_State *L, ZIO *Z, const char *name) {
     e88:	b087      	sub	sp, #28
  if (*name == '@' || *name == '=')
     e8a:	d001      	beq.n	e90 <luaU_undump+0x10>
     e8c:	2b3d      	cmp	r3, #61	; 0x3d
     e8e:	d102      	bne.n	e96 <luaU_undump+0x16>
    S.name = name + 1;
     e90:	3201      	adds	r2, #1
  else if (*name == LUA_SIGNATURE[0])
    S.name = "binary string";
  else
    S.name = name;
     e92:	9205      	str	r2, [sp, #20]
     e94:	e003      	b.n	e9e <luaU_undump+0x1e>
  else if (*name == LUA_SIGNATURE[0])
     e96:	2b1b      	cmp	r3, #27
     e98:	d1fb      	bne.n	e92 <luaU_undump+0x12>
    S.name = "binary string";
     e9a:	4b3b      	ldr	r3, [pc, #236]	; (f88 <luaU_undump+0x108>)
     e9c:	9305      	str	r3, [sp, #20]
  S.L = L;
  S.Z = Z;
     e9e:	e9cd 5103 	strd	r5, r1, [sp, #12]
  checkliteral(S, &LUA_SIGNATURE[1], "not a binary chunk");
     ea2:	4a3a      	ldr	r2, [pc, #232]	; (f8c <luaU_undump+0x10c>)
     ea4:	493a      	ldr	r1, [pc, #232]	; (f90 <luaU_undump+0x110>)
     ea6:	a803      	add	r0, sp, #12
     ea8:	f015 f9b5 	bl	16216 <checkliteral>
  if (loadByte(S) != LUAC_VERSION)
     eac:	a803      	add	r0, sp, #12
     eae:	f007 fdc5 	bl	8a3c <loadByte>
     eb2:	2854      	cmp	r0, #84	; 0x54
     eb4:	d003      	beq.n	ebe <luaU_undump+0x3e>
    error(S, "version mismatch");
     eb6:	4937      	ldr	r1, [pc, #220]	; (f94 <luaU_undump+0x114>)
    error(S, "format mismatch");
     eb8:	a803      	add	r0, sp, #12
     eba:	f007 fda3 	bl	8a04 <error>
  if (loadByte(S) != LUAC_FORMAT)
     ebe:	a803      	add	r0, sp, #12
     ec0:	f007 fdbc 	bl	8a3c <loadByte>
     ec4:	b108      	cbz	r0, eca <luaU_undump+0x4a>
    error(S, "format mismatch");
     ec6:	4934      	ldr	r1, [pc, #208]	; (f98 <luaU_undump+0x118>)
     ec8:	e7f6      	b.n	eb8 <luaU_undump+0x38>
  checkliteral(S, LUAC_DATA, "corrupted chunk");
     eca:	4a34      	ldr	r2, [pc, #208]	; (f9c <luaU_undump+0x11c>)
     ecc:	4934      	ldr	r1, [pc, #208]	; (fa0 <luaU_undump+0x120>)
     ece:	a803      	add	r0, sp, #12
     ed0:	f015 f9a1 	bl	16216 <checkliteral>
  checksize(S, Instruction);
     ed4:	2104      	movs	r1, #4
     ed6:	4a33      	ldr	r2, [pc, #204]	; (fa4 <luaU_undump+0x124>)
     ed8:	a803      	add	r0, sp, #12
     eda:	f007 ff7b 	bl	8dd4 <fchecksize>
  checksize(S, lua_Integer);
     ede:	2108      	movs	r1, #8
     ee0:	4a31      	ldr	r2, [pc, #196]	; (fa8 <luaU_undump+0x128>)
     ee2:	a803      	add	r0, sp, #12
     ee4:	f007 ff76 	bl	8dd4 <fchecksize>
  checksize(S, lua_Number);
     ee8:	2108      	movs	r1, #8
     eea:	4a30      	ldr	r2, [pc, #192]	; (fac <luaU_undump+0x12c>)
     eec:	a803      	add	r0, sp, #12
     eee:	f007 ff71 	bl	8dd4 <fchecksize>
  loadVar(S, x);
     ef2:	2208      	movs	r2, #8
     ef4:	4669      	mov	r1, sp
     ef6:	a803      	add	r0, sp, #12
     ef8:	f007 fd92 	bl	8a20 <loadBlock>
  if (loadInteger(S) != LUAC_INT)
     efc:	9b00      	ldr	r3, [sp, #0]
     efe:	9a01      	ldr	r2, [sp, #4]
     f00:	f5a3 43ac 	sub.w	r3, r3, #22016	; 0x5600
     f04:	3b78      	subs	r3, #120	; 0x78
     f06:	4313      	orrs	r3, r2
     f08:	d001      	beq.n	f0e <luaU_undump+0x8e>
    error(S, "integer format mismatch");
     f0a:	4929      	ldr	r1, [pc, #164]	; (fb0 <luaU_undump+0x130>)
     f0c:	e7d4      	b.n	eb8 <luaU_undump+0x38>
  loadVar(S, x);
     f0e:	2208      	movs	r2, #8
     f10:	4669      	mov	r1, sp
     f12:	a803      	add	r0, sp, #12
     f14:	f007 fd84 	bl	8a20 <loadBlock>
  if (loadNumber(S) != LUAC_NUM)
     f18:	a319      	add	r3, pc, #100	; (adr r3, f80 <luaU_undump+0x100>)
     f1a:	e9d3 2300 	ldrd	r2, r3, [r3]
     f1e:	e9dd 0100 	ldrd	r0, r1, [sp]
     f22:	f7ff fd09 	bl	938 <__aeabi_dcmpeq>
     f26:	b908      	cbnz	r0, f2c <luaU_undump+0xac>
    error(S, "float format mismatch");
     f28:	4922      	ldr	r1, [pc, #136]	; (fb4 <luaU_undump+0x134>)
     f2a:	e7c5      	b.n	eb8 <luaU_undump+0x38>
  checkHeader(&S);
  cl = luaF_newLclosure(L, loadByte(&S));
     f2c:	a803      	add	r0, sp, #12
     f2e:	f007 fd85 	bl	8a3c <loadByte>
     f32:	4601      	mov	r1, r0
     f34:	4628      	mov	r0, r5
     f36:	f012 faa9 	bl	1348c <luaF_newLclosure>
  setclLvalue2s(L, L->top, cl);
     f3a:	2246      	movs	r2, #70	; 0x46
     f3c:	68eb      	ldr	r3, [r5, #12]
  cl = luaF_newLclosure(L, loadByte(&S));
     f3e:	4604      	mov	r4, r0
  setclLvalue2s(L, L->top, cl);
     f40:	6018      	str	r0, [r3, #0]
     f42:	721a      	strb	r2, [r3, #8]
  luaD_inctop(L);
     f44:	4628      	mov	r0, r5
     f46:	f011 ffc7 	bl	12ed8 <luaD_inctop>
  cl->p = luaF_newproto(L);
     f4a:	4628      	mov	r0, r5
     f4c:	f012 fb8b 	bl	13666 <luaF_newproto>
  luaC_objbarrier(L, cl, cl->p);
     f50:	7963      	ldrb	r3, [r4, #5]
  cl->p = luaF_newproto(L);
     f52:	4602      	mov	r2, r0
  luaC_objbarrier(L, cl, cl->p);
     f54:	069b      	lsls	r3, r3, #26
  cl->p = luaF_newproto(L);
     f56:	60e0      	str	r0, [r4, #12]
  luaC_objbarrier(L, cl, cl->p);
     f58:	d507      	bpl.n	f6a <luaU_undump+0xea>
     f5a:	7943      	ldrb	r3, [r0, #5]
     f5c:	f013 0f18 	tst.w	r3, #24
     f60:	d003      	beq.n	f6a <luaU_undump+0xea>
     f62:	4621      	mov	r1, r4
     f64:	4628      	mov	r0, r5
     f66:	f013 faca 	bl	144fe <luaC_barrier_>
  loadFunction(&S, cl->p, NULL);
     f6a:	a803      	add	r0, sp, #12
     f6c:	2200      	movs	r2, #0
     f6e:	68e1      	ldr	r1, [r4, #12]
     f70:	f007 fd94 	bl	8a9c <loadFunction>
  lua_assert(cl->nupvalues == cl->p->sizeupvalues);
  luai_verifycode(L, cl->p);
  return cl;
}
     f74:	4620      	mov	r0, r4
     f76:	b007      	add	sp, #28
     f78:	bd30      	pop	{r4, r5, pc}
     f7a:	bf00      	nop
     f7c:	f3af 8000 	nop.w
     f80:	00000000 	.word	0x00000000
     f84:	40772800 	.word	0x40772800
     f88:	0001893a 	.word	0x0001893a
     f8c:	00018948 	.word	0x00018948
     f90:	0001895c 	.word	0x0001895c
     f94:	00018960 	.word	0x00018960
     f98:	000189b3 	.word	0x000189b3
     f9c:	00018971 	.word	0x00018971
     fa0:	00018981 	.word	0x00018981
     fa4:	00018988 	.word	0x00018988
     fa8:	00018994 	.word	0x00018994
     fac:	000189a0 	.word	0x000189a0
     fb0:	000189ab 	.word	0x000189ab
     fb4:	000189c3 	.word	0x000189c3

00000fb8 <floor>:
     fb8:	e92d 43f8 	stmdb	sp!, {r3, r4, r5, r6, r7, r8, r9, lr}
     fbc:	f3c1 580a 	ubfx	r8, r1, #20, #11
     fc0:	f2a8 36ff 	subw	r6, r8, #1023	; 0x3ff
     fc4:	2e13      	cmp	r6, #19
     fc6:	4602      	mov	r2, r0
     fc8:	460b      	mov	r3, r1
     fca:	4607      	mov	r7, r0
     fcc:	460c      	mov	r4, r1
     fce:	4605      	mov	r5, r0
     fd0:	dc33      	bgt.n	103a <floor+0x82>
     fd2:	2e00      	cmp	r6, #0
     fd4:	da14      	bge.n	1000 <floor+0x48>
     fd6:	a334      	add	r3, pc, #208	; (adr r3, 10a8 <floor+0xf0>)
     fd8:	e9d3 2300 	ldrd	r2, r3, [r3]
     fdc:	f7ff f88e 	bl	fc <__adddf3>
     fe0:	2200      	movs	r2, #0
     fe2:	2300      	movs	r3, #0
     fe4:	f7ff fcd0 	bl	988 <__aeabi_dcmpgt>
     fe8:	b138      	cbz	r0, ffa <floor+0x42>
     fea:	2c00      	cmp	r4, #0
     fec:	da58      	bge.n	10a0 <floor+0xe8>
     fee:	f024 4300 	bic.w	r3, r4, #2147483648	; 0x80000000
     ff2:	431d      	orrs	r5, r3
     ff4:	d001      	beq.n	ffa <floor+0x42>
     ff6:	2500      	movs	r5, #0
     ff8:	4c2d      	ldr	r4, [pc, #180]	; (10b0 <floor+0xf8>)
     ffa:	4623      	mov	r3, r4
     ffc:	462f      	mov	r7, r5
     ffe:	e025      	b.n	104c <floor+0x94>
    1000:	4a2c      	ldr	r2, [pc, #176]	; (10b4 <floor+0xfc>)
    1002:	fa42 f806 	asr.w	r8, r2, r6
    1006:	ea01 0208 	and.w	r2, r1, r8
    100a:	4302      	orrs	r2, r0
    100c:	d01e      	beq.n	104c <floor+0x94>
    100e:	a326      	add	r3, pc, #152	; (adr r3, 10a8 <floor+0xf0>)
    1010:	e9d3 2300 	ldrd	r2, r3, [r3]
    1014:	f7ff f872 	bl	fc <__adddf3>
    1018:	2200      	movs	r2, #0
    101a:	2300      	movs	r3, #0
    101c:	f7ff fcb4 	bl	988 <__aeabi_dcmpgt>
    1020:	2800      	cmp	r0, #0
    1022:	d0ea      	beq.n	ffa <floor+0x42>
    1024:	2c00      	cmp	r4, #0
    1026:	bfbe      	ittt	lt
    1028:	f44f 1380 	movlt.w	r3, #1048576	; 0x100000
    102c:	fa43 f606 	asrlt.w	r6, r3, r6
    1030:	19a4      	addlt	r4, r4, r6
    1032:	2500      	movs	r5, #0
    1034:	ea24 0408 	bic.w	r4, r4, r8
    1038:	e7df      	b.n	ffa <floor+0x42>
    103a:	2e33      	cmp	r6, #51	; 0x33
    103c:	dd0a      	ble.n	1054 <floor+0x9c>
    103e:	f5b6 6f80 	cmp.w	r6, #1024	; 0x400
    1042:	d103      	bne.n	104c <floor+0x94>
    1044:	f7ff f85a 	bl	fc <__adddf3>
    1048:	4607      	mov	r7, r0
    104a:	460b      	mov	r3, r1
    104c:	4638      	mov	r0, r7
    104e:	4619      	mov	r1, r3
    1050:	e8bd 83f8 	ldmia.w	sp!, {r3, r4, r5, r6, r7, r8, r9, pc}
    1054:	f04f 32ff 	mov.w	r2, #4294967295	; 0xffffffff
    1058:	f2a8 4813 	subw	r8, r8, #1043	; 0x413
    105c:	fa22 f808 	lsr.w	r8, r2, r8
    1060:	ea18 0f00 	tst.w	r8, r0
    1064:	d0f2      	beq.n	104c <floor+0x94>
    1066:	a310      	add	r3, pc, #64	; (adr r3, 10a8 <floor+0xf0>)
    1068:	e9d3 2300 	ldrd	r2, r3, [r3]
    106c:	f7ff f846 	bl	fc <__adddf3>
    1070:	2200      	movs	r2, #0
    1072:	2300      	movs	r3, #0
    1074:	f7ff fc88 	bl	988 <__aeabi_dcmpgt>
    1078:	2800      	cmp	r0, #0
    107a:	d0be      	beq.n	ffa <floor+0x42>
    107c:	2c00      	cmp	r4, #0
    107e:	da02      	bge.n	1086 <floor+0xce>
    1080:	2e14      	cmp	r6, #20
    1082:	d103      	bne.n	108c <floor+0xd4>
    1084:	3401      	adds	r4, #1
    1086:	ea25 0508 	bic.w	r5, r5, r8
    108a:	e7b6      	b.n	ffa <floor+0x42>
    108c:	2301      	movs	r3, #1
    108e:	f1c6 0634 	rsb	r6, r6, #52	; 0x34
    1092:	fa03 f606 	lsl.w	r6, r3, r6
    1096:	4435      	add	r5, r6
    1098:	42bd      	cmp	r5, r7
    109a:	bf38      	it	cc
    109c:	18e4      	addcc	r4, r4, r3
    109e:	e7f2      	b.n	1086 <floor+0xce>
    10a0:	2500      	movs	r5, #0
    10a2:	462c      	mov	r4, r5
    10a4:	e7a9      	b.n	ffa <floor+0x42>
    10a6:	bf00      	nop
    10a8:	8800759c 	.word	0x8800759c
    10ac:	7e37e43c 	.word	0x7e37e43c
    10b0:	bff00000 	.word	0xbff00000
    10b4:	000fffff 	.word	0x000fffff

000010b8 <scalbn>:
    10b8:	b5f8      	push	{r3, r4, r5, r6, r7, lr}
    10ba:	f3c1 560a 	ubfx	r6, r1, #20, #11
    10be:	4604      	mov	r4, r0
    10c0:	460d      	mov	r5, r1
    10c2:	4617      	mov	r7, r2
    10c4:	460b      	mov	r3, r1
    10c6:	b996      	cbnz	r6, 10ee <scalbn+0x36>
    10c8:	f021 4300 	bic.w	r3, r1, #2147483648	; 0x80000000
    10cc:	4303      	orrs	r3, r0
    10ce:	d039      	beq.n	1144 <scalbn+0x8c>
    10d0:	4b33      	ldr	r3, [pc, #204]	; (11a0 <scalbn+0xe8>)
    10d2:	2200      	movs	r2, #0
    10d4:	f7ff f9c8 	bl	468 <__aeabi_dmul>
    10d8:	4b32      	ldr	r3, [pc, #200]	; (11a4 <scalbn+0xec>)
    10da:	4604      	mov	r4, r0
    10dc:	429f      	cmp	r7, r3
    10de:	460d      	mov	r5, r1
    10e0:	da0f      	bge.n	1102 <scalbn+0x4a>
    10e2:	a32b      	add	r3, pc, #172	; (adr r3, 1190 <scalbn+0xd8>)
    10e4:	e9d3 2300 	ldrd	r2, r3, [r3]
    10e8:	f7ff f9be 	bl	468 <__aeabi_dmul>
    10ec:	e006      	b.n	10fc <scalbn+0x44>
    10ee:	f240 72ff 	movw	r2, #2047	; 0x7ff
    10f2:	4296      	cmp	r6, r2
    10f4:	d10a      	bne.n	110c <scalbn+0x54>
    10f6:	4602      	mov	r2, r0
    10f8:	f7ff f800 	bl	fc <__adddf3>
    10fc:	4604      	mov	r4, r0
    10fe:	460d      	mov	r5, r1
    1100:	e020      	b.n	1144 <scalbn+0x8c>
    1102:	460b      	mov	r3, r1
    1104:	f3c1 510a 	ubfx	r1, r1, #20, #11
    1108:	f1a1 0636 	sub.w	r6, r1, #54	; 0x36
    110c:	f240 72fe 	movw	r2, #2046	; 0x7fe
    1110:	19b9      	adds	r1, r7, r6
    1112:	4291      	cmp	r1, r2
    1114:	dd0e      	ble.n	1134 <scalbn+0x7c>
    1116:	f005 4400 	and.w	r4, r5, #2147483648	; 0x80000000
    111a:	f044 41fc 	orr.w	r1, r4, #2113929216	; 0x7e000000
    111e:	f441 115f 	orr.w	r1, r1, #3653632	; 0x37c000
    1122:	f441 5110 	orr.w	r1, r1, #9216	; 0x2400
    1126:	4820      	ldr	r0, [pc, #128]	; (11a8 <scalbn+0xf0>)
    1128:	f041 013c 	orr.w	r1, r1, #60	; 0x3c
    112c:	a31a      	add	r3, pc, #104	; (adr r3, 1198 <scalbn+0xe0>)
    112e:	e9d3 2300 	ldrd	r2, r3, [r3]
    1132:	e7d9      	b.n	10e8 <scalbn+0x30>
    1134:	2900      	cmp	r1, #0
    1136:	dd08      	ble.n	114a <scalbn+0x92>
    1138:	f023 43ff 	bic.w	r3, r3, #2139095040	; 0x7f800000
    113c:	f423 03e0 	bic.w	r3, r3, #7340032	; 0x700000
    1140:	ea43 5501 	orr.w	r5, r3, r1, lsl #20
    1144:	4620      	mov	r0, r4
    1146:	4629      	mov	r1, r5
    1148:	bdf8      	pop	{r3, r4, r5, r6, r7, pc}
    114a:	f111 0f35 	cmn.w	r1, #53	; 0x35
    114e:	da12      	bge.n	1176 <scalbn+0xbe>
    1150:	f24c 3350 	movw	r3, #50000	; 0xc350
    1154:	429f      	cmp	r7, r3
    1156:	ea4f 73d5 	mov.w	r3, r5, lsr #31
    115a:	ea4f 74c3 	mov.w	r4, r3, lsl #31
    115e:	dcdc      	bgt.n	111a <scalbn+0x62>
    1160:	a30b      	add	r3, pc, #44	; (adr r3, 1190 <scalbn+0xd8>)
    1162:	e9d3 2300 	ldrd	r2, r3, [r3]
    1166:	f044 71d2 	orr.w	r1, r4, #27525120	; 0x1a40000
    116a:	f441 31b7 	orr.w	r1, r1, #93696	; 0x16e00
    116e:	480f      	ldr	r0, [pc, #60]	; (11ac <scalbn+0xf4>)
    1170:	f041 011f 	orr.w	r1, r1, #31
    1174:	e7b8      	b.n	10e8 <scalbn+0x30>
    1176:	f023 43ff 	bic.w	r3, r3, #2139095040	; 0x7f800000
    117a:	3136      	adds	r1, #54	; 0x36
    117c:	f423 03e0 	bic.w	r3, r3, #7340032	; 0x700000
    1180:	ea43 5501 	orr.w	r5, r3, r1, lsl #20
    1184:	4620      	mov	r0, r4
    1186:	4629      	mov	r1, r5
    1188:	2200      	movs	r2, #0
    118a:	4b09      	ldr	r3, [pc, #36]	; (11b0 <scalbn+0xf8>)
    118c:	e7ac      	b.n	10e8 <scalbn+0x30>
    118e:	bf00      	nop
    1190:	c2f8f359 	.word	0xc2f8f359
    1194:	01a56e1f 	.word	0x01a56e1f
    1198:	8800759c 	.word	0x8800759c
    119c:	7e37e43c 	.word	0x7e37e43c
    11a0:	43500000 	.word	0x43500000
    11a4:	ffff3cb0 	.word	0xffff3cb0
    11a8:	8800759c 	.word	0x8800759c
    11ac:	c2f8f359 	.word	0xc2f8f359
    11b0:	3c900000 	.word	0x3c900000
    11b4:	00000000 	.word	0x00000000

000011b8 <__ieee754_pow>:
    11b8:	e92d 4ff0 	stmdb	sp!, {r4, r5, r6, r7, r8, r9, sl, fp, lr}
    11bc:	b093      	sub	sp, #76	; 0x4c
    11be:	e9cd 2302 	strd	r2, r3, [sp, #8]
    11c2:	e9dd 2602 	ldrd	r2, r6, [sp, #8]
    11c6:	f026 4500 	bic.w	r5, r6, #2147483648	; 0x80000000
    11ca:	ea55 0302 	orrs.w	r3, r5, r2
    11ce:	4607      	mov	r7, r0
    11d0:	4688      	mov	r8, r1
    11d2:	f000 84bf 	beq.w	1b54 <__ieee754_pow+0x99c>
    11d6:	4b7e      	ldr	r3, [pc, #504]	; (13d0 <__ieee754_pow+0x218>)
    11d8:	f021 4400 	bic.w	r4, r1, #2147483648	; 0x80000000
    11dc:	429c      	cmp	r4, r3
    11de:	4689      	mov	r9, r1
    11e0:	4682      	mov	sl, r0
    11e2:	dc09      	bgt.n	11f8 <__ieee754_pow+0x40>
    11e4:	d103      	bne.n	11ee <__ieee754_pow+0x36>
    11e6:	b978      	cbnz	r0, 1208 <__ieee754_pow+0x50>
    11e8:	42a5      	cmp	r5, r4
    11ea:	dd02      	ble.n	11f2 <__ieee754_pow+0x3a>
    11ec:	e00c      	b.n	1208 <__ieee754_pow+0x50>
    11ee:	429d      	cmp	r5, r3
    11f0:	dc02      	bgt.n	11f8 <__ieee754_pow+0x40>
    11f2:	429d      	cmp	r5, r3
    11f4:	d10e      	bne.n	1214 <__ieee754_pow+0x5c>
    11f6:	b16a      	cbz	r2, 1214 <__ieee754_pow+0x5c>
    11f8:	f104 4440 	add.w	r4, r4, #3221225472	; 0xc0000000
    11fc:	f504 1480 	add.w	r4, r4, #1048576	; 0x100000
    1200:	ea54 030a 	orrs.w	r3, r4, sl
    1204:	f000 84a6 	beq.w	1b54 <__ieee754_pow+0x99c>
    1208:	4872      	ldr	r0, [pc, #456]	; (13d4 <__ieee754_pow+0x21c>)
    120a:	b013      	add	sp, #76	; 0x4c
    120c:	e8bd 4ff0 	ldmia.w	sp!, {r4, r5, r6, r7, r8, r9, sl, fp, lr}
    1210:	f00c b844 	b.w	d29c <nan>
    1214:	f1b9 0f00 	cmp.w	r9, #0
    1218:	da39      	bge.n	128e <__ieee754_pow+0xd6>
    121a:	4b6f      	ldr	r3, [pc, #444]	; (13d8 <__ieee754_pow+0x220>)
    121c:	429d      	cmp	r5, r3
    121e:	dc54      	bgt.n	12ca <__ieee754_pow+0x112>
    1220:	f1a3 7354 	sub.w	r3, r3, #55574528	; 0x3500000
    1224:	429d      	cmp	r5, r3
    1226:	f340 84a6 	ble.w	1b76 <__ieee754_pow+0x9be>
    122a:	152b      	asrs	r3, r5, #20
    122c:	f2a3 33ff 	subw	r3, r3, #1023	; 0x3ff
    1230:	2b14      	cmp	r3, #20
    1232:	dd0f      	ble.n	1254 <__ieee754_pow+0x9c>
    1234:	f1c3 0334 	rsb	r3, r3, #52	; 0x34
    1238:	fa22 f103 	lsr.w	r1, r2, r3
    123c:	fa01 f303 	lsl.w	r3, r1, r3
    1240:	4293      	cmp	r3, r2
    1242:	f040 8498 	bne.w	1b76 <__ieee754_pow+0x9be>
    1246:	f001 0101 	and.w	r1, r1, #1
    124a:	f1c1 0302 	rsb	r3, r1, #2
    124e:	9300      	str	r3, [sp, #0]
    1250:	b182      	cbz	r2, 1274 <__ieee754_pow+0xbc>
    1252:	e05e      	b.n	1312 <__ieee754_pow+0x15a>
    1254:	2a00      	cmp	r2, #0
    1256:	d15a      	bne.n	130e <__ieee754_pow+0x156>
    1258:	f1c3 0314 	rsb	r3, r3, #20
    125c:	fa45 f103 	asr.w	r1, r5, r3
    1260:	fa01 f303 	lsl.w	r3, r1, r3
    1264:	42ab      	cmp	r3, r5
    1266:	f040 8483 	bne.w	1b70 <__ieee754_pow+0x9b8>
    126a:	f001 0101 	and.w	r1, r1, #1
    126e:	f1c1 0302 	rsb	r3, r1, #2
    1272:	9300      	str	r3, [sp, #0]
    1274:	4b59      	ldr	r3, [pc, #356]	; (13dc <__ieee754_pow+0x224>)
    1276:	429d      	cmp	r5, r3
    1278:	d130      	bne.n	12dc <__ieee754_pow+0x124>
    127a:	2e00      	cmp	r6, #0
    127c:	f280 8474 	bge.w	1b68 <__ieee754_pow+0x9b0>
    1280:	463a      	mov	r2, r7
    1282:	4643      	mov	r3, r8
    1284:	2000      	movs	r0, #0
    1286:	4955      	ldr	r1, [pc, #340]	; (13dc <__ieee754_pow+0x224>)
    1288:	f7ff fa18 	bl	6bc <__aeabi_ddiv>
    128c:	e02f      	b.n	12ee <__ieee754_pow+0x136>
    128e:	2300      	movs	r3, #0
    1290:	9300      	str	r3, [sp, #0]
    1292:	2a00      	cmp	r2, #0
    1294:	d13d      	bne.n	1312 <__ieee754_pow+0x15a>
    1296:	4b4e      	ldr	r3, [pc, #312]	; (13d0 <__ieee754_pow+0x218>)
    1298:	429d      	cmp	r5, r3
    129a:	d1eb      	bne.n	1274 <__ieee754_pow+0xbc>
    129c:	f104 4340 	add.w	r3, r4, #3221225472	; 0xc0000000
    12a0:	f503 1380 	add.w	r3, r3, #1048576	; 0x100000
    12a4:	ea53 030a 	orrs.w	r3, r3, sl
    12a8:	f000 8454 	beq.w	1b54 <__ieee754_pow+0x99c>
    12ac:	4b4c      	ldr	r3, [pc, #304]	; (13e0 <__ieee754_pow+0x228>)
    12ae:	429c      	cmp	r4, r3
    12b0:	dd0d      	ble.n	12ce <__ieee754_pow+0x116>
    12b2:	2e00      	cmp	r6, #0
    12b4:	f280 8454 	bge.w	1b60 <__ieee754_pow+0x9a8>
    12b8:	f04f 0b00 	mov.w	fp, #0
    12bc:	f04f 0c00 	mov.w	ip, #0
    12c0:	4658      	mov	r0, fp
    12c2:	4661      	mov	r1, ip
    12c4:	b013      	add	sp, #76	; 0x4c
    12c6:	e8bd 8ff0 	ldmia.w	sp!, {r4, r5, r6, r7, r8, r9, sl, fp, pc}
    12ca:	2302      	movs	r3, #2
    12cc:	e7e0      	b.n	1290 <__ieee754_pow+0xd8>
    12ce:	2e00      	cmp	r6, #0
    12d0:	daf2      	bge.n	12b8 <__ieee754_pow+0x100>
    12d2:	e9dd b302 	ldrd	fp, r3, [sp, #8]
    12d6:	f103 4c00 	add.w	ip, r3, #2147483648	; 0x80000000
    12da:	e7f1      	b.n	12c0 <__ieee754_pow+0x108>
    12dc:	f1b6 4f80 	cmp.w	r6, #1073741824	; 0x40000000
    12e0:	d108      	bne.n	12f4 <__ieee754_pow+0x13c>
    12e2:	463a      	mov	r2, r7
    12e4:	4643      	mov	r3, r8
    12e6:	4638      	mov	r0, r7
    12e8:	4641      	mov	r1, r8
    12ea:	f7ff f8bd 	bl	468 <__aeabi_dmul>
    12ee:	4683      	mov	fp, r0
    12f0:	468c      	mov	ip, r1
    12f2:	e7e5      	b.n	12c0 <__ieee754_pow+0x108>
    12f4:	4b3b      	ldr	r3, [pc, #236]	; (13e4 <__ieee754_pow+0x22c>)
    12f6:	429e      	cmp	r6, r3
    12f8:	d10b      	bne.n	1312 <__ieee754_pow+0x15a>
    12fa:	f1b9 0f00 	cmp.w	r9, #0
    12fe:	db08      	blt.n	1312 <__ieee754_pow+0x15a>
    1300:	4638      	mov	r0, r7
    1302:	4641      	mov	r1, r8
    1304:	b013      	add	sp, #76	; 0x4c
    1306:	e8bd 4ff0 	ldmia.w	sp!, {r4, r5, r6, r7, r8, r9, sl, fp, lr}
    130a:	f00b bf17 	b.w	d13c <__ieee754_sqrt>
    130e:	2300      	movs	r3, #0
    1310:	9300      	str	r3, [sp, #0]
    1312:	4638      	mov	r0, r7
    1314:	4641      	mov	r1, r8
    1316:	f015 fbed 	bl	16af4 <fabs>
    131a:	4683      	mov	fp, r0
    131c:	468c      	mov	ip, r1
    131e:	f1ba 0f00 	cmp.w	sl, #0
    1322:	d129      	bne.n	1378 <__ieee754_pow+0x1c0>
    1324:	b124      	cbz	r4, 1330 <__ieee754_pow+0x178>
    1326:	4b2d      	ldr	r3, [pc, #180]	; (13dc <__ieee754_pow+0x224>)
    1328:	f029 4240 	bic.w	r2, r9, #3221225472	; 0xc0000000
    132c:	429a      	cmp	r2, r3
    132e:	d123      	bne.n	1378 <__ieee754_pow+0x1c0>
    1330:	2e00      	cmp	r6, #0
    1332:	da07      	bge.n	1344 <__ieee754_pow+0x18c>
    1334:	465a      	mov	r2, fp
    1336:	4663      	mov	r3, ip
    1338:	2000      	movs	r0, #0
    133a:	4928      	ldr	r1, [pc, #160]	; (13dc <__ieee754_pow+0x224>)
    133c:	f7ff f9be 	bl	6bc <__aeabi_ddiv>
    1340:	4683      	mov	fp, r0
    1342:	468c      	mov	ip, r1
    1344:	f1b9 0f00 	cmp.w	r9, #0
    1348:	daba      	bge.n	12c0 <__ieee754_pow+0x108>
    134a:	9b00      	ldr	r3, [sp, #0]
    134c:	f104 4440 	add.w	r4, r4, #3221225472	; 0xc0000000
    1350:	f504 1480 	add.w	r4, r4, #1048576	; 0x100000
    1354:	4323      	orrs	r3, r4
    1356:	d108      	bne.n	136a <__ieee754_pow+0x1b2>
    1358:	465a      	mov	r2, fp
    135a:	4663      	mov	r3, ip
    135c:	4658      	mov	r0, fp
    135e:	4661      	mov	r1, ip
    1360:	f7fe feca 	bl	f8 <__aeabi_dsub>
    1364:	4602      	mov	r2, r0
    1366:	460b      	mov	r3, r1
    1368:	e78e      	b.n	1288 <__ieee754_pow+0xd0>
    136a:	9b00      	ldr	r3, [sp, #0]
    136c:	2b01      	cmp	r3, #1
    136e:	d1a7      	bne.n	12c0 <__ieee754_pow+0x108>
    1370:	f10c 4300 	add.w	r3, ip, #2147483648	; 0x80000000
    1374:	469c      	mov	ip, r3
    1376:	e7a3      	b.n	12c0 <__ieee754_pow+0x108>
    1378:	ea4f 73d9 	mov.w	r3, r9, lsr #31
    137c:	3b01      	subs	r3, #1
    137e:	930c      	str	r3, [sp, #48]	; 0x30
    1380:	9a0c      	ldr	r2, [sp, #48]	; 0x30
    1382:	9b00      	ldr	r3, [sp, #0]
    1384:	4313      	orrs	r3, r2
    1386:	d104      	bne.n	1392 <__ieee754_pow+0x1da>
    1388:	463a      	mov	r2, r7
    138a:	4643      	mov	r3, r8
    138c:	4638      	mov	r0, r7
    138e:	4641      	mov	r1, r8
    1390:	e7e6      	b.n	1360 <__ieee754_pow+0x1a8>
    1392:	4b15      	ldr	r3, [pc, #84]	; (13e8 <__ieee754_pow+0x230>)
    1394:	429d      	cmp	r5, r3
    1396:	f340 80f9 	ble.w	158c <__ieee754_pow+0x3d4>
    139a:	f103 7304 	add.w	r3, r3, #34603008	; 0x2100000
    139e:	429d      	cmp	r5, r3
    13a0:	4b0f      	ldr	r3, [pc, #60]	; (13e0 <__ieee754_pow+0x228>)
    13a2:	dd09      	ble.n	13b8 <__ieee754_pow+0x200>
    13a4:	429c      	cmp	r4, r3
    13a6:	dc0c      	bgt.n	13c2 <__ieee754_pow+0x20a>
    13a8:	2e00      	cmp	r6, #0
    13aa:	da85      	bge.n	12b8 <__ieee754_pow+0x100>
    13ac:	a306      	add	r3, pc, #24	; (adr r3, 13c8 <__ieee754_pow+0x210>)
    13ae:	e9d3 2300 	ldrd	r2, r3, [r3]
    13b2:	4610      	mov	r0, r2
    13b4:	4619      	mov	r1, r3
    13b6:	e798      	b.n	12ea <__ieee754_pow+0x132>
    13b8:	429c      	cmp	r4, r3
    13ba:	dbf5      	blt.n	13a8 <__ieee754_pow+0x1f0>
    13bc:	4b07      	ldr	r3, [pc, #28]	; (13dc <__ieee754_pow+0x224>)
    13be:	429c      	cmp	r4, r3
    13c0:	dd14      	ble.n	13ec <__ieee754_pow+0x234>
    13c2:	2e00      	cmp	r6, #0
    13c4:	dcf2      	bgt.n	13ac <__ieee754_pow+0x1f4>
    13c6:	e777      	b.n	12b8 <__ieee754_pow+0x100>
    13c8:	8800759c 	.word	0x8800759c
    13cc:	7e37e43c 	.word	0x7e37e43c
    13d0:	7ff00000 	.word	0x7ff00000
    13d4:	00018987 	.word	0x00018987
    13d8:	433fffff 	.word	0x433fffff
    13dc:	3ff00000 	.word	0x3ff00000
    13e0:	3fefffff 	.word	0x3fefffff
    13e4:	3fe00000 	.word	0x3fe00000
    13e8:	41e00000 	.word	0x41e00000
    13ec:	4661      	mov	r1, ip
    13ee:	2200      	movs	r2, #0
    13f0:	4658      	mov	r0, fp
    13f2:	4b61      	ldr	r3, [pc, #388]	; (1578 <__ieee754_pow+0x3c0>)
    13f4:	f7fe fe80 	bl	f8 <__aeabi_dsub>
    13f8:	a355      	add	r3, pc, #340	; (adr r3, 1550 <__ieee754_pow+0x398>)
    13fa:	e9d3 2300 	ldrd	r2, r3, [r3]
    13fe:	4604      	mov	r4, r0
    1400:	460d      	mov	r5, r1
    1402:	f7ff f831 	bl	468 <__aeabi_dmul>
    1406:	a354      	add	r3, pc, #336	; (adr r3, 1558 <__ieee754_pow+0x3a0>)
    1408:	e9d3 2300 	ldrd	r2, r3, [r3]
    140c:	4606      	mov	r6, r0
    140e:	460f      	mov	r7, r1
    1410:	4620      	mov	r0, r4
    1412:	4629      	mov	r1, r5
    1414:	f7ff f828 	bl	468 <__aeabi_dmul>
    1418:	2200      	movs	r2, #0
    141a:	4682      	mov	sl, r0
    141c:	468b      	mov	fp, r1
    141e:	4620      	mov	r0, r4
    1420:	4629      	mov	r1, r5
    1422:	4b56      	ldr	r3, [pc, #344]	; (157c <__ieee754_pow+0x3c4>)
    1424:	f7ff f820 	bl	468 <__aeabi_dmul>
    1428:	4602      	mov	r2, r0
    142a:	460b      	mov	r3, r1
    142c:	a14c      	add	r1, pc, #304	; (adr r1, 1560 <__ieee754_pow+0x3a8>)
    142e:	e9d1 0100 	ldrd	r0, r1, [r1]
    1432:	f7fe fe61 	bl	f8 <__aeabi_dsub>
    1436:	4622      	mov	r2, r4
    1438:	462b      	mov	r3, r5
    143a:	f7ff f815 	bl	468 <__aeabi_dmul>
    143e:	4602      	mov	r2, r0
    1440:	460b      	mov	r3, r1
    1442:	2000      	movs	r0, #0
    1444:	494e      	ldr	r1, [pc, #312]	; (1580 <__ieee754_pow+0x3c8>)
    1446:	f7fe fe57 	bl	f8 <__aeabi_dsub>
    144a:	4622      	mov	r2, r4
    144c:	462b      	mov	r3, r5
    144e:	4680      	mov	r8, r0
    1450:	4689      	mov	r9, r1
    1452:	4620      	mov	r0, r4
    1454:	4629      	mov	r1, r5
    1456:	f7ff f807 	bl	468 <__aeabi_dmul>
    145a:	4602      	mov	r2, r0
    145c:	460b      	mov	r3, r1
    145e:	4640      	mov	r0, r8
    1460:	4649      	mov	r1, r9
    1462:	f7ff f801 	bl	468 <__aeabi_dmul>
    1466:	a340      	add	r3, pc, #256	; (adr r3, 1568 <__ieee754_pow+0x3b0>)
    1468:	e9d3 2300 	ldrd	r2, r3, [r3]
    146c:	f7fe fffc 	bl	468 <__aeabi_dmul>
    1470:	4602      	mov	r2, r0
    1472:	460b      	mov	r3, r1
    1474:	4650      	mov	r0, sl
    1476:	4659      	mov	r1, fp
    1478:	f7fe fe3e 	bl	f8 <__aeabi_dsub>
    147c:	f04f 0a00 	mov.w	sl, #0
    1480:	4602      	mov	r2, r0
    1482:	460b      	mov	r3, r1
    1484:	4604      	mov	r4, r0
    1486:	460d      	mov	r5, r1
    1488:	4630      	mov	r0, r6
    148a:	4639      	mov	r1, r7
    148c:	f7fe fe36 	bl	fc <__adddf3>
    1490:	4632      	mov	r2, r6
    1492:	463b      	mov	r3, r7
    1494:	4650      	mov	r0, sl
    1496:	468b      	mov	fp, r1
    1498:	f7fe fe2e 	bl	f8 <__aeabi_dsub>
    149c:	4602      	mov	r2, r0
    149e:	460b      	mov	r3, r1
    14a0:	4620      	mov	r0, r4
    14a2:	4629      	mov	r1, r5
    14a4:	f7fe fe28 	bl	f8 <__aeabi_dsub>
    14a8:	e9dd 6702 	ldrd	r6, r7, [sp, #8]
    14ac:	9b00      	ldr	r3, [sp, #0]
    14ae:	9a0c      	ldr	r2, [sp, #48]	; 0x30
    14b0:	3b01      	subs	r3, #1
    14b2:	4313      	orrs	r3, r2
    14b4:	f04f 0600 	mov.w	r6, #0
    14b8:	f04f 0200 	mov.w	r2, #0
    14bc:	bf0c      	ite	eq
    14be:	4b31      	ldreq	r3, [pc, #196]	; (1584 <__ieee754_pow+0x3cc>)
    14c0:	4b2d      	ldrne	r3, [pc, #180]	; (1578 <__ieee754_pow+0x3c0>)
    14c2:	4604      	mov	r4, r0
    14c4:	460d      	mov	r5, r1
    14c6:	e9dd 0102 	ldrd	r0, r1, [sp, #8]
    14ca:	e9cd 2300 	strd	r2, r3, [sp]
    14ce:	4632      	mov	r2, r6
    14d0:	463b      	mov	r3, r7
    14d2:	f7fe fe11 	bl	f8 <__aeabi_dsub>
    14d6:	4652      	mov	r2, sl
    14d8:	465b      	mov	r3, fp
    14da:	f7fe ffc5 	bl	468 <__aeabi_dmul>
    14de:	e9dd 2302 	ldrd	r2, r3, [sp, #8]
    14e2:	4680      	mov	r8, r0
    14e4:	4689      	mov	r9, r1
    14e6:	4620      	mov	r0, r4
    14e8:	4629      	mov	r1, r5
    14ea:	f7fe ffbd 	bl	468 <__aeabi_dmul>
    14ee:	4602      	mov	r2, r0
    14f0:	460b      	mov	r3, r1
    14f2:	4640      	mov	r0, r8
    14f4:	4649      	mov	r1, r9
    14f6:	f7fe fe01 	bl	fc <__adddf3>
    14fa:	4632      	mov	r2, r6
    14fc:	463b      	mov	r3, r7
    14fe:	4680      	mov	r8, r0
    1500:	4689      	mov	r9, r1
    1502:	4650      	mov	r0, sl
    1504:	4659      	mov	r1, fp
    1506:	f7fe ffaf 	bl	468 <__aeabi_dmul>
    150a:	4604      	mov	r4, r0
    150c:	460d      	mov	r5, r1
    150e:	460b      	mov	r3, r1
    1510:	4602      	mov	r2, r0
    1512:	4649      	mov	r1, r9
    1514:	4640      	mov	r0, r8
    1516:	e9cd 4502 	strd	r4, r5, [sp, #8]
    151a:	f7fe fdef 	bl	fc <__adddf3>
    151e:	4b1a      	ldr	r3, [pc, #104]	; (1588 <__ieee754_pow+0x3d0>)
    1520:	4682      	mov	sl, r0
    1522:	4299      	cmp	r1, r3
    1524:	460f      	mov	r7, r1
    1526:	460e      	mov	r6, r1
    1528:	f340 82ed 	ble.w	1b06 <__ieee754_pow+0x94e>
    152c:	f101 433f 	add.w	r3, r1, #3204448256	; 0xbf000000
    1530:	f503 03e0 	add.w	r3, r3, #7340032	; 0x700000
    1534:	4303      	orrs	r3, r0
    1536:	f000 81e7 	beq.w	1908 <__ieee754_pow+0x750>
    153a:	a30d      	add	r3, pc, #52	; (adr r3, 1570 <__ieee754_pow+0x3b8>)
    153c:	e9d3 2300 	ldrd	r2, r3, [r3]
    1540:	e9dd 0100 	ldrd	r0, r1, [sp]
    1544:	f7fe ff90 	bl	468 <__aeabi_dmul>
    1548:	a309      	add	r3, pc, #36	; (adr r3, 1570 <__ieee754_pow+0x3b8>)
    154a:	e9d3 2300 	ldrd	r2, r3, [r3]
    154e:	e6cc      	b.n	12ea <__ieee754_pow+0x132>
    1550:	60000000 	.word	0x60000000
    1554:	3ff71547 	.word	0x3ff71547
    1558:	f85ddf44 	.word	0xf85ddf44
    155c:	3e54ae0b 	.word	0x3e54ae0b
    1560:	55555555 	.word	0x55555555
    1564:	3fd55555 	.word	0x3fd55555
    1568:	652b82fe 	.word	0x652b82fe
    156c:	3ff71547 	.word	0x3ff71547
    1570:	8800759c 	.word	0x8800759c
    1574:	7e37e43c 	.word	0x7e37e43c
    1578:	3ff00000 	.word	0x3ff00000
    157c:	3fd00000 	.word	0x3fd00000
    1580:	3fe00000 	.word	0x3fe00000
    1584:	bff00000 	.word	0xbff00000
    1588:	408fffff 	.word	0x408fffff
    158c:	4bd4      	ldr	r3, [pc, #848]	; (18e0 <__ieee754_pow+0x728>)
    158e:	2200      	movs	r2, #0
    1590:	ea09 0303 	and.w	r3, r9, r3
    1594:	b943      	cbnz	r3, 15a8 <__ieee754_pow+0x3f0>
    1596:	4658      	mov	r0, fp
    1598:	4661      	mov	r1, ip
    159a:	4bd2      	ldr	r3, [pc, #840]	; (18e4 <__ieee754_pow+0x72c>)
    159c:	f7fe ff64 	bl	468 <__aeabi_dmul>
    15a0:	f06f 0234 	mvn.w	r2, #52	; 0x34
    15a4:	4683      	mov	fp, r0
    15a6:	460c      	mov	r4, r1
    15a8:	1523      	asrs	r3, r4, #20
    15aa:	f2a3 33ff 	subw	r3, r3, #1023	; 0x3ff
    15ae:	4413      	add	r3, r2
    15b0:	930b      	str	r3, [sp, #44]	; 0x2c
    15b2:	4bcd      	ldr	r3, [pc, #820]	; (18e8 <__ieee754_pow+0x730>)
    15b4:	f3c4 0413 	ubfx	r4, r4, #0, #20
    15b8:	f044 557f 	orr.w	r5, r4, #1069547520	; 0x3fc00000
    15bc:	429c      	cmp	r4, r3
    15be:	f445 1540 	orr.w	r5, r5, #3145728	; 0x300000
    15c2:	dd08      	ble.n	15d6 <__ieee754_pow+0x41e>
    15c4:	4bc9      	ldr	r3, [pc, #804]	; (18ec <__ieee754_pow+0x734>)
    15c6:	429c      	cmp	r4, r3
    15c8:	f340 819c 	ble.w	1904 <__ieee754_pow+0x74c>
    15cc:	9b0b      	ldr	r3, [sp, #44]	; 0x2c
    15ce:	f5a5 1580 	sub.w	r5, r5, #1048576	; 0x100000
    15d2:	3301      	adds	r3, #1
    15d4:	930b      	str	r3, [sp, #44]	; 0x2c
    15d6:	2600      	movs	r6, #0
    15d8:	00f3      	lsls	r3, r6, #3
    15da:	930d      	str	r3, [sp, #52]	; 0x34
    15dc:	4bc4      	ldr	r3, [pc, #784]	; (18f0 <__ieee754_pow+0x738>)
    15de:	4658      	mov	r0, fp
    15e0:	eb03 03c6 	add.w	r3, r3, r6, lsl #3
    15e4:	e9d3 3400 	ldrd	r3, r4, [r3]
    15e8:	4629      	mov	r1, r5
    15ea:	461a      	mov	r2, r3
    15ec:	e9cd 3408 	strd	r3, r4, [sp, #32]
    15f0:	4623      	mov	r3, r4
    15f2:	f7fe fd81 	bl	f8 <__aeabi_dsub>
    15f6:	46da      	mov	sl, fp
    15f8:	462b      	mov	r3, r5
    15fa:	4652      	mov	r2, sl
    15fc:	e9cd 010e 	strd	r0, r1, [sp, #56]	; 0x38
    1600:	e9dd 0108 	ldrd	r0, r1, [sp, #32]
    1604:	f7fe fd7a 	bl	fc <__adddf3>
    1608:	4602      	mov	r2, r0
    160a:	460b      	mov	r3, r1
    160c:	2000      	movs	r0, #0
    160e:	49b9      	ldr	r1, [pc, #740]	; (18f4 <__ieee754_pow+0x73c>)
    1610:	f7ff f854 	bl	6bc <__aeabi_ddiv>
    1614:	4602      	mov	r2, r0
    1616:	460b      	mov	r3, r1
    1618:	e9cd 0110 	strd	r0, r1, [sp, #64]	; 0x40
    161c:	e9dd 010e 	ldrd	r0, r1, [sp, #56]	; 0x38
    1620:	f7fe ff22 	bl	468 <__aeabi_dmul>
    1624:	e9cd 0106 	strd	r0, r1, [sp, #24]
    1628:	e9dd 3406 	ldrd	r3, r4, [sp, #24]
    162c:	e9cd 3404 	strd	r3, r4, [sp, #16]
    1630:	2300      	movs	r3, #0
    1632:	2200      	movs	r2, #0
    1634:	46ab      	mov	fp, r5
    1636:	106d      	asrs	r5, r5, #1
    1638:	f045 5500 	orr.w	r5, r5, #536870912	; 0x20000000
    163c:	9304      	str	r3, [sp, #16]
    163e:	f505 2500 	add.w	r5, r5, #524288	; 0x80000
    1642:	e9dd 8904 	ldrd	r8, r9, [sp, #16]
    1646:	eb05 4386 	add.w	r3, r5, r6, lsl #18
    164a:	4640      	mov	r0, r8
    164c:	4649      	mov	r1, r9
    164e:	4614      	mov	r4, r2
    1650:	461d      	mov	r5, r3
    1652:	f7fe ff09 	bl	468 <__aeabi_dmul>
    1656:	4602      	mov	r2, r0
    1658:	460b      	mov	r3, r1
    165a:	e9dd 010e 	ldrd	r0, r1, [sp, #56]	; 0x38
    165e:	f7fe fd4b 	bl	f8 <__aeabi_dsub>
    1662:	e9dd 2308 	ldrd	r2, r3, [sp, #32]
    1666:	4606      	mov	r6, r0
    1668:	460f      	mov	r7, r1
    166a:	4620      	mov	r0, r4
    166c:	4629      	mov	r1, r5
    166e:	f7fe fd43 	bl	f8 <__aeabi_dsub>
    1672:	4602      	mov	r2, r0
    1674:	460b      	mov	r3, r1
    1676:	4650      	mov	r0, sl
    1678:	4659      	mov	r1, fp
    167a:	f7fe fd3d 	bl	f8 <__aeabi_dsub>
    167e:	4642      	mov	r2, r8
    1680:	464b      	mov	r3, r9
    1682:	f7fe fef1 	bl	468 <__aeabi_dmul>
    1686:	4602      	mov	r2, r0
    1688:	460b      	mov	r3, r1
    168a:	4630      	mov	r0, r6
    168c:	4639      	mov	r1, r7
    168e:	f7fe fd33 	bl	f8 <__aeabi_dsub>
    1692:	e9dd 2310 	ldrd	r2, r3, [sp, #64]	; 0x40
    1696:	f7fe fee7 	bl	468 <__aeabi_dmul>
    169a:	e9dd 2306 	ldrd	r2, r3, [sp, #24]
    169e:	e9cd 0108 	strd	r0, r1, [sp, #32]
    16a2:	4610      	mov	r0, r2
    16a4:	4619      	mov	r1, r3
    16a6:	f7fe fedf 	bl	468 <__aeabi_dmul>
    16aa:	a37b      	add	r3, pc, #492	; (adr r3, 1898 <__ieee754_pow+0x6e0>)
    16ac:	e9d3 2300 	ldrd	r2, r3, [r3]
    16b0:	4604      	mov	r4, r0
    16b2:	460d      	mov	r5, r1
    16b4:	f7fe fed8 	bl	468 <__aeabi_dmul>
    16b8:	a379      	add	r3, pc, #484	; (adr r3, 18a0 <__ieee754_pow+0x6e8>)
    16ba:	e9d3 2300 	ldrd	r2, r3, [r3]
    16be:	f7fe fd1d 	bl	fc <__adddf3>
    16c2:	4622      	mov	r2, r4
    16c4:	462b      	mov	r3, r5
    16c6:	f7fe fecf 	bl	468 <__aeabi_dmul>
    16ca:	a377      	add	r3, pc, #476	; (adr r3, 18a8 <__ieee754_pow+0x6f0>)
    16cc:	e9d3 2300 	ldrd	r2, r3, [r3]
    16d0:	f7fe fd14 	bl	fc <__adddf3>
    16d4:	4622      	mov	r2, r4
    16d6:	462b      	mov	r3, r5
    16d8:	f7fe fec6 	bl	468 <__aeabi_dmul>
    16dc:	a374      	add	r3, pc, #464	; (adr r3, 18b0 <__ieee754_pow+0x6f8>)
    16de:	e9d3 2300 	ldrd	r2, r3, [r3]
    16e2:	f7fe fd0b 	bl	fc <__adddf3>
    16e6:	4622      	mov	r2, r4
    16e8:	462b      	mov	r3, r5
    16ea:	f7fe febd 	bl	468 <__aeabi_dmul>
    16ee:	a372      	add	r3, pc, #456	; (adr r3, 18b8 <__ieee754_pow+0x700>)
    16f0:	e9d3 2300 	ldrd	r2, r3, [r3]
    16f4:	f7fe fd02 	bl	fc <__adddf3>
    16f8:	4622      	mov	r2, r4
    16fa:	462b      	mov	r3, r5
    16fc:	f7fe feb4 	bl	468 <__aeabi_dmul>
    1700:	a36f      	add	r3, pc, #444	; (adr r3, 18c0 <__ieee754_pow+0x708>)
    1702:	e9d3 2300 	ldrd	r2, r3, [r3]
    1706:	f7fe fcf9 	bl	fc <__adddf3>
    170a:	4622      	mov	r2, r4
    170c:	4606      	mov	r6, r0
    170e:	460f      	mov	r7, r1
    1710:	462b      	mov	r3, r5
    1712:	4620      	mov	r0, r4
    1714:	4629      	mov	r1, r5
    1716:	f7fe fea7 	bl	468 <__aeabi_dmul>
    171a:	4602      	mov	r2, r0
    171c:	460b      	mov	r3, r1
    171e:	4630      	mov	r0, r6
    1720:	4639      	mov	r1, r7
    1722:	f7fe fea1 	bl	468 <__aeabi_dmul>
    1726:	4604      	mov	r4, r0
    1728:	460d      	mov	r5, r1
    172a:	e9dd 0106 	ldrd	r0, r1, [sp, #24]
    172e:	4642      	mov	r2, r8
    1730:	464b      	mov	r3, r9
    1732:	f7fe fce3 	bl	fc <__adddf3>
    1736:	e9dd 2308 	ldrd	r2, r3, [sp, #32]
    173a:	f7fe fe95 	bl	468 <__aeabi_dmul>
    173e:	4622      	mov	r2, r4
    1740:	462b      	mov	r3, r5
    1742:	f7fe fcdb 	bl	fc <__adddf3>
    1746:	4642      	mov	r2, r8
    1748:	4606      	mov	r6, r0
    174a:	460f      	mov	r7, r1
    174c:	464b      	mov	r3, r9
    174e:	4640      	mov	r0, r8
    1750:	4649      	mov	r1, r9
    1752:	f7fe fe89 	bl	468 <__aeabi_dmul>
    1756:	2200      	movs	r2, #0
    1758:	4b67      	ldr	r3, [pc, #412]	; (18f8 <__ieee754_pow+0x740>)
    175a:	4682      	mov	sl, r0
    175c:	468b      	mov	fp, r1
    175e:	f7fe fccd 	bl	fc <__adddf3>
    1762:	4632      	mov	r2, r6
    1764:	463b      	mov	r3, r7
    1766:	f7fe fcc9 	bl	fc <__adddf3>
    176a:	2400      	movs	r4, #0
    176c:	460d      	mov	r5, r1
    176e:	4622      	mov	r2, r4
    1770:	460b      	mov	r3, r1
    1772:	4640      	mov	r0, r8
    1774:	4649      	mov	r1, r9
    1776:	f7fe fe77 	bl	468 <__aeabi_dmul>
    177a:	2200      	movs	r2, #0
    177c:	4680      	mov	r8, r0
    177e:	4689      	mov	r9, r1
    1780:	4620      	mov	r0, r4
    1782:	4629      	mov	r1, r5
    1784:	4b5c      	ldr	r3, [pc, #368]	; (18f8 <__ieee754_pow+0x740>)
    1786:	f7fe fcb7 	bl	f8 <__aeabi_dsub>
    178a:	4652      	mov	r2, sl
    178c:	465b      	mov	r3, fp
    178e:	f7fe fcb3 	bl	f8 <__aeabi_dsub>
    1792:	4602      	mov	r2, r0
    1794:	460b      	mov	r3, r1
    1796:	4630      	mov	r0, r6
    1798:	4639      	mov	r1, r7
    179a:	f7fe fcad 	bl	f8 <__aeabi_dsub>
    179e:	e9dd 2306 	ldrd	r2, r3, [sp, #24]
    17a2:	f7fe fe61 	bl	468 <__aeabi_dmul>
    17a6:	4622      	mov	r2, r4
    17a8:	4606      	mov	r6, r0
    17aa:	460f      	mov	r7, r1
    17ac:	e9dd 0108 	ldrd	r0, r1, [sp, #32]
    17b0:	462b      	mov	r3, r5
    17b2:	f7fe fe59 	bl	468 <__aeabi_dmul>
    17b6:	4602      	mov	r2, r0
    17b8:	460b      	mov	r3, r1
    17ba:	4630      	mov	r0, r6
    17bc:	4639      	mov	r1, r7
    17be:	f7fe fc9d 	bl	fc <__adddf3>
    17c2:	2400      	movs	r4, #0
    17c4:	4606      	mov	r6, r0
    17c6:	460f      	mov	r7, r1
    17c8:	4602      	mov	r2, r0
    17ca:	460b      	mov	r3, r1
    17cc:	4640      	mov	r0, r8
    17ce:	4649      	mov	r1, r9
    17d0:	f7fe fc94 	bl	fc <__adddf3>
    17d4:	a33c      	add	r3, pc, #240	; (adr r3, 18c8 <__ieee754_pow+0x710>)
    17d6:	e9d3 2300 	ldrd	r2, r3, [r3]
    17da:	4620      	mov	r0, r4
    17dc:	460d      	mov	r5, r1
    17de:	f7fe fe43 	bl	468 <__aeabi_dmul>
    17e2:	4642      	mov	r2, r8
    17e4:	464b      	mov	r3, r9
    17e6:	e9cd 0106 	strd	r0, r1, [sp, #24]
    17ea:	4620      	mov	r0, r4
    17ec:	4629      	mov	r1, r5
    17ee:	f7fe fc83 	bl	f8 <__aeabi_dsub>
    17f2:	4602      	mov	r2, r0
    17f4:	460b      	mov	r3, r1
    17f6:	4630      	mov	r0, r6
    17f8:	4639      	mov	r1, r7
    17fa:	f7fe fc7d 	bl	f8 <__aeabi_dsub>
    17fe:	a334      	add	r3, pc, #208	; (adr r3, 18d0 <__ieee754_pow+0x718>)
    1800:	e9d3 2300 	ldrd	r2, r3, [r3]
    1804:	f7fe fe30 	bl	468 <__aeabi_dmul>
    1808:	a333      	add	r3, pc, #204	; (adr r3, 18d8 <__ieee754_pow+0x720>)
    180a:	e9d3 2300 	ldrd	r2, r3, [r3]
    180e:	4606      	mov	r6, r0
    1810:	460f      	mov	r7, r1
    1812:	4620      	mov	r0, r4
    1814:	4629      	mov	r1, r5
    1816:	f7fe fe27 	bl	468 <__aeabi_dmul>
    181a:	4602      	mov	r2, r0
    181c:	460b      	mov	r3, r1
    181e:	4630      	mov	r0, r6
    1820:	4639      	mov	r1, r7
    1822:	f7fe fc6b 	bl	fc <__adddf3>
    1826:	9a0d      	ldr	r2, [sp, #52]	; 0x34
    1828:	4b34      	ldr	r3, [pc, #208]	; (18fc <__ieee754_pow+0x744>)
    182a:	f04f 0a00 	mov.w	sl, #0
    182e:	4413      	add	r3, r2
    1830:	e9d3 2300 	ldrd	r2, r3, [r3]
    1834:	f7fe fc62 	bl	fc <__adddf3>
    1838:	4680      	mov	r8, r0
    183a:	980b      	ldr	r0, [sp, #44]	; 0x2c
    183c:	4689      	mov	r9, r1
    183e:	f7fe fda9 	bl	394 <__aeabi_i2d>
    1842:	4604      	mov	r4, r0
    1844:	460d      	mov	r5, r1
    1846:	9a0d      	ldr	r2, [sp, #52]	; 0x34
    1848:	4b2d      	ldr	r3, [pc, #180]	; (1900 <__ieee754_pow+0x748>)
    184a:	4413      	add	r3, r2
    184c:	e9d3 6700 	ldrd	r6, r7, [r3]
    1850:	4642      	mov	r2, r8
    1852:	e9dd 0106 	ldrd	r0, r1, [sp, #24]
    1856:	464b      	mov	r3, r9
    1858:	f7fe fc50 	bl	fc <__adddf3>
    185c:	4632      	mov	r2, r6
    185e:	463b      	mov	r3, r7
    1860:	f7fe fc4c 	bl	fc <__adddf3>
    1864:	4622      	mov	r2, r4
    1866:	462b      	mov	r3, r5
    1868:	f7fe fc48 	bl	fc <__adddf3>
    186c:	4622      	mov	r2, r4
    186e:	462b      	mov	r3, r5
    1870:	4650      	mov	r0, sl
    1872:	468b      	mov	fp, r1
    1874:	f7fe fc40 	bl	f8 <__aeabi_dsub>
    1878:	4632      	mov	r2, r6
    187a:	463b      	mov	r3, r7
    187c:	f7fe fc3c 	bl	f8 <__aeabi_dsub>
    1880:	e9dd 2306 	ldrd	r2, r3, [sp, #24]
    1884:	f7fe fc38 	bl	f8 <__aeabi_dsub>
    1888:	4602      	mov	r2, r0
    188a:	460b      	mov	r3, r1
    188c:	4640      	mov	r0, r8
    188e:	4649      	mov	r1, r9
    1890:	e608      	b.n	14a4 <__ieee754_pow+0x2ec>
    1892:	bf00      	nop
    1894:	f3af 8000 	nop.w
    1898:	4a454eef 	.word	0x4a454eef
    189c:	3fca7e28 	.word	0x3fca7e28
    18a0:	93c9db65 	.word	0x93c9db65
    18a4:	3fcd864a 	.word	0x3fcd864a
    18a8:	a91d4101 	.word	0xa91d4101
    18ac:	3fd17460 	.word	0x3fd17460
    18b0:	518f264d 	.word	0x518f264d
    18b4:	3fd55555 	.word	0x3fd55555
    18b8:	db6fabff 	.word	0xdb6fabff
    18bc:	3fdb6db6 	.word	0x3fdb6db6
    18c0:	33333303 	.word	0x33333303
    18c4:	3fe33333 	.word	0x3fe33333
    18c8:	e0000000 	.word	0xe0000000
    18cc:	3feec709 	.word	0x3feec709
    18d0:	dc3a03fd 	.word	0xdc3a03fd
    18d4:	3feec709 	.word	0x3feec709
    18d8:	145b01f5 	.word	0x145b01f5
    18dc:	be3e2fe0 	.word	0xbe3e2fe0
    18e0:	7ff00000 	.word	0x7ff00000
    18e4:	43400000 	.word	0x43400000
    18e8:	0003988e 	.word	0x0003988e
    18ec:	000bb679 	.word	0x000bb679
    18f0:	00017840 	.word	0x00017840
    18f4:	3ff00000 	.word	0x3ff00000
    18f8:	40080000 	.word	0x40080000
    18fc:	00017860 	.word	0x00017860
    1900:	00017850 	.word	0x00017850
    1904:	2601      	movs	r6, #1
    1906:	e667      	b.n	15d8 <__ieee754_pow+0x420>
    1908:	a39d      	add	r3, pc, #628	; (adr r3, 1b80 <__ieee754_pow+0x9c8>)
    190a:	e9d3 2300 	ldrd	r2, r3, [r3]
    190e:	4640      	mov	r0, r8
    1910:	4649      	mov	r1, r9
    1912:	f7fe fbf3 	bl	fc <__adddf3>
    1916:	4622      	mov	r2, r4
    1918:	e9cd 0104 	strd	r0, r1, [sp, #16]
    191c:	462b      	mov	r3, r5
    191e:	4650      	mov	r0, sl
    1920:	4639      	mov	r1, r7
    1922:	f7fe fbe9 	bl	f8 <__aeabi_dsub>
    1926:	4602      	mov	r2, r0
    1928:	460b      	mov	r3, r1
    192a:	e9dd 0104 	ldrd	r0, r1, [sp, #16]
    192e:	f7ff f82b 	bl	988 <__aeabi_dcmpgt>
    1932:	2800      	cmp	r0, #0
    1934:	f47f ae01 	bne.w	153a <__ieee754_pow+0x382>
    1938:	4aa5      	ldr	r2, [pc, #660]	; (1bd0 <__ieee754_pow+0xa18>)
    193a:	f026 4300 	bic.w	r3, r6, #2147483648	; 0x80000000
    193e:	4293      	cmp	r3, r2
    1940:	f340 8103 	ble.w	1b4a <__ieee754_pow+0x992>
    1944:	f44f 1a80 	mov.w	sl, #1048576	; 0x100000
    1948:	2000      	movs	r0, #0
    194a:	151b      	asrs	r3, r3, #20
    194c:	f2a3 33fe 	subw	r3, r3, #1022	; 0x3fe
    1950:	fa4a f303 	asr.w	r3, sl, r3
    1954:	4433      	add	r3, r6
    1956:	f3c3 520a 	ubfx	r2, r3, #20, #11
    195a:	4f9e      	ldr	r7, [pc, #632]	; (1bd4 <__ieee754_pow+0xa1c>)
    195c:	f2a2 32ff 	subw	r2, r2, #1023	; 0x3ff
    1960:	4117      	asrs	r7, r2
    1962:	f3c3 0a13 	ubfx	sl, r3, #0, #20
    1966:	ea23 0107 	bic.w	r1, r3, r7
    196a:	f1c2 0214 	rsb	r2, r2, #20
    196e:	f44a 1a80 	orr.w	sl, sl, #1048576	; 0x100000
    1972:	460b      	mov	r3, r1
    1974:	fa4a fa02 	asr.w	sl, sl, r2
    1978:	2e00      	cmp	r6, #0
    197a:	4602      	mov	r2, r0
    197c:	4629      	mov	r1, r5
    197e:	4620      	mov	r0, r4
    1980:	bfb8      	it	lt
    1982:	f1ca 0a00 	rsblt	sl, sl, #0
    1986:	f7fe fbb7 	bl	f8 <__aeabi_dsub>
    198a:	e9cd 0102 	strd	r0, r1, [sp, #8]
    198e:	e9dd 0102 	ldrd	r0, r1, [sp, #8]
    1992:	2400      	movs	r4, #0
    1994:	4642      	mov	r2, r8
    1996:	464b      	mov	r3, r9
    1998:	f7fe fbb0 	bl	fc <__adddf3>
    199c:	a37a      	add	r3, pc, #488	; (adr r3, 1b88 <__ieee754_pow+0x9d0>)
    199e:	e9d3 2300 	ldrd	r2, r3, [r3]
    19a2:	4620      	mov	r0, r4
    19a4:	460d      	mov	r5, r1
    19a6:	f7fe fd5f 	bl	468 <__aeabi_dmul>
    19aa:	e9dd 2302 	ldrd	r2, r3, [sp, #8]
    19ae:	4606      	mov	r6, r0
    19b0:	460f      	mov	r7, r1
    19b2:	4620      	mov	r0, r4
    19b4:	4629      	mov	r1, r5
    19b6:	f7fe fb9f 	bl	f8 <__aeabi_dsub>
    19ba:	4602      	mov	r2, r0
    19bc:	460b      	mov	r3, r1
    19be:	4640      	mov	r0, r8
    19c0:	4649      	mov	r1, r9
    19c2:	f7fe fb99 	bl	f8 <__aeabi_dsub>
    19c6:	a372      	add	r3, pc, #456	; (adr r3, 1b90 <__ieee754_pow+0x9d8>)
    19c8:	e9d3 2300 	ldrd	r2, r3, [r3]
    19cc:	f7fe fd4c 	bl	468 <__aeabi_dmul>
    19d0:	a371      	add	r3, pc, #452	; (adr r3, 1b98 <__ieee754_pow+0x9e0>)
    19d2:	e9d3 2300 	ldrd	r2, r3, [r3]
    19d6:	4680      	mov	r8, r0
    19d8:	4689      	mov	r9, r1
    19da:	4620      	mov	r0, r4
    19dc:	4629      	mov	r1, r5
    19de:	f7fe fd43 	bl	468 <__aeabi_dmul>
    19e2:	4602      	mov	r2, r0
    19e4:	460b      	mov	r3, r1
    19e6:	4640      	mov	r0, r8
    19e8:	4649      	mov	r1, r9
    19ea:	f7fe fb87 	bl	fc <__adddf3>
    19ee:	4604      	mov	r4, r0
    19f0:	460d      	mov	r5, r1
    19f2:	4602      	mov	r2, r0
    19f4:	460b      	mov	r3, r1
    19f6:	4630      	mov	r0, r6
    19f8:	4639      	mov	r1, r7
    19fa:	f7fe fb7f 	bl	fc <__adddf3>
    19fe:	4632      	mov	r2, r6
    1a00:	463b      	mov	r3, r7
    1a02:	4680      	mov	r8, r0
    1a04:	4689      	mov	r9, r1
    1a06:	f7fe fb77 	bl	f8 <__aeabi_dsub>
    1a0a:	4602      	mov	r2, r0
    1a0c:	460b      	mov	r3, r1
    1a0e:	4620      	mov	r0, r4
    1a10:	4629      	mov	r1, r5
    1a12:	f7fe fb71 	bl	f8 <__aeabi_dsub>
    1a16:	4642      	mov	r2, r8
    1a18:	4606      	mov	r6, r0
    1a1a:	460f      	mov	r7, r1
    1a1c:	464b      	mov	r3, r9
    1a1e:	4640      	mov	r0, r8
    1a20:	4649      	mov	r1, r9
    1a22:	f7fe fd21 	bl	468 <__aeabi_dmul>
    1a26:	a35e      	add	r3, pc, #376	; (adr r3, 1ba0 <__ieee754_pow+0x9e8>)
    1a28:	e9d3 2300 	ldrd	r2, r3, [r3]
    1a2c:	4604      	mov	r4, r0
    1a2e:	460d      	mov	r5, r1
    1a30:	f7fe fd1a 	bl	468 <__aeabi_dmul>
    1a34:	a35c      	add	r3, pc, #368	; (adr r3, 1ba8 <__ieee754_pow+0x9f0>)
    1a36:	e9d3 2300 	ldrd	r2, r3, [r3]
    1a3a:	f7fe fb5d 	bl	f8 <__aeabi_dsub>
    1a3e:	4622      	mov	r2, r4
    1a40:	462b      	mov	r3, r5
    1a42:	f7fe fd11 	bl	468 <__aeabi_dmul>
    1a46:	a35a      	add	r3, pc, #360	; (adr r3, 1bb0 <__ieee754_pow+0x9f8>)
    1a48:	e9d3 2300 	ldrd	r2, r3, [r3]
    1a4c:	f7fe fb56 	bl	fc <__adddf3>
    1a50:	4622      	mov	r2, r4
    1a52:	462b      	mov	r3, r5
    1a54:	f7fe fd08 	bl	468 <__aeabi_dmul>
    1a58:	a357      	add	r3, pc, #348	; (adr r3, 1bb8 <__ieee754_pow+0xa00>)
    1a5a:	e9d3 2300 	ldrd	r2, r3, [r3]
    1a5e:	f7fe fb4b 	bl	f8 <__aeabi_dsub>
    1a62:	4622      	mov	r2, r4
    1a64:	462b      	mov	r3, r5
    1a66:	f7fe fcff 	bl	468 <__aeabi_dmul>
    1a6a:	a355      	add	r3, pc, #340	; (adr r3, 1bc0 <__ieee754_pow+0xa08>)
    1a6c:	e9d3 2300 	ldrd	r2, r3, [r3]
    1a70:	f7fe fb44 	bl	fc <__adddf3>
    1a74:	4622      	mov	r2, r4
    1a76:	462b      	mov	r3, r5
    1a78:	f7fe fcf6 	bl	468 <__aeabi_dmul>
    1a7c:	4602      	mov	r2, r0
    1a7e:	460b      	mov	r3, r1
    1a80:	4640      	mov	r0, r8
    1a82:	4649      	mov	r1, r9
    1a84:	f7fe fb38 	bl	f8 <__aeabi_dsub>
    1a88:	4604      	mov	r4, r0
    1a8a:	460d      	mov	r5, r1
    1a8c:	4602      	mov	r2, r0
    1a8e:	460b      	mov	r3, r1
    1a90:	4640      	mov	r0, r8
    1a92:	4649      	mov	r1, r9
    1a94:	f7fe fce8 	bl	468 <__aeabi_dmul>
    1a98:	2200      	movs	r2, #0
    1a9a:	e9cd 0102 	strd	r0, r1, [sp, #8]
    1a9e:	f04f 4380 	mov.w	r3, #1073741824	; 0x40000000
    1aa2:	4620      	mov	r0, r4
    1aa4:	4629      	mov	r1, r5
    1aa6:	f7fe fb27 	bl	f8 <__aeabi_dsub>
    1aaa:	4602      	mov	r2, r0
    1aac:	460b      	mov	r3, r1
    1aae:	e9dd 0102 	ldrd	r0, r1, [sp, #8]
    1ab2:	f7fe fe03 	bl	6bc <__aeabi_ddiv>
    1ab6:	4632      	mov	r2, r6
    1ab8:	4604      	mov	r4, r0
    1aba:	460d      	mov	r5, r1
    1abc:	463b      	mov	r3, r7
    1abe:	4640      	mov	r0, r8
    1ac0:	4649      	mov	r1, r9
    1ac2:	f7fe fcd1 	bl	468 <__aeabi_dmul>
    1ac6:	4632      	mov	r2, r6
    1ac8:	463b      	mov	r3, r7
    1aca:	f7fe fb17 	bl	fc <__adddf3>
    1ace:	4602      	mov	r2, r0
    1ad0:	460b      	mov	r3, r1
    1ad2:	4620      	mov	r0, r4
    1ad4:	4629      	mov	r1, r5
    1ad6:	f7fe fb0f 	bl	f8 <__aeabi_dsub>
    1ada:	4642      	mov	r2, r8
    1adc:	464b      	mov	r3, r9
    1ade:	f7fe fb0b 	bl	f8 <__aeabi_dsub>
    1ae2:	4602      	mov	r2, r0
    1ae4:	460b      	mov	r3, r1
    1ae6:	2000      	movs	r0, #0
    1ae8:	493b      	ldr	r1, [pc, #236]	; (1bd8 <__ieee754_pow+0xa20>)
    1aea:	f7fe fb05 	bl	f8 <__aeabi_dsub>
    1aee:	eb01 540a 	add.w	r4, r1, sl, lsl #20
    1af2:	f5b4 1f80 	cmp.w	r4, #1048576	; 0x100000
    1af6:	da2b      	bge.n	1b50 <__ieee754_pow+0x998>
    1af8:	4652      	mov	r2, sl
    1afa:	f7ff fadd 	bl	10b8 <scalbn>
    1afe:	e9dd 2300 	ldrd	r2, r3, [sp]
    1b02:	f7ff bbf2 	b.w	12ea <__ieee754_pow+0x132>
    1b06:	4b35      	ldr	r3, [pc, #212]	; (1bdc <__ieee754_pow+0xa24>)
    1b08:	f021 4700 	bic.w	r7, r1, #2147483648	; 0x80000000
    1b0c:	429f      	cmp	r7, r3
    1b0e:	f77f af13 	ble.w	1938 <__ieee754_pow+0x780>
    1b12:	4b33      	ldr	r3, [pc, #204]	; (1be0 <__ieee754_pow+0xa28>)
    1b14:	440b      	add	r3, r1
    1b16:	4303      	orrs	r3, r0
    1b18:	d00b      	beq.n	1b32 <__ieee754_pow+0x97a>
    1b1a:	a32b      	add	r3, pc, #172	; (adr r3, 1bc8 <__ieee754_pow+0xa10>)
    1b1c:	e9d3 2300 	ldrd	r2, r3, [r3]
    1b20:	e9dd 0100 	ldrd	r0, r1, [sp]
    1b24:	f7fe fca0 	bl	468 <__aeabi_dmul>
    1b28:	a327      	add	r3, pc, #156	; (adr r3, 1bc8 <__ieee754_pow+0xa10>)
    1b2a:	e9d3 2300 	ldrd	r2, r3, [r3]
    1b2e:	f7ff bbdc 	b.w	12ea <__ieee754_pow+0x132>
    1b32:	4622      	mov	r2, r4
    1b34:	462b      	mov	r3, r5
    1b36:	f7fe fadf 	bl	f8 <__aeabi_dsub>
    1b3a:	4642      	mov	r2, r8
    1b3c:	464b      	mov	r3, r9
    1b3e:	f7fe ff19 	bl	974 <__aeabi_dcmpge>
    1b42:	2800      	cmp	r0, #0
    1b44:	f43f aef8 	beq.w	1938 <__ieee754_pow+0x780>
    1b48:	e7e7      	b.n	1b1a <__ieee754_pow+0x962>
    1b4a:	f04f 0a00 	mov.w	sl, #0
    1b4e:	e71e      	b.n	198e <__ieee754_pow+0x7d6>
    1b50:	4621      	mov	r1, r4
    1b52:	e7d4      	b.n	1afe <__ieee754_pow+0x946>
    1b54:	f04f 0b00 	mov.w	fp, #0
    1b58:	f8df c07c 	ldr.w	ip, [pc, #124]	; 1bd8 <__ieee754_pow+0xa20>
    1b5c:	f7ff bbb0 	b.w	12c0 <__ieee754_pow+0x108>
    1b60:	e9dd bc02 	ldrd	fp, ip, [sp, #8]
    1b64:	f7ff bbac 	b.w	12c0 <__ieee754_pow+0x108>
    1b68:	4638      	mov	r0, r7
    1b6a:	4641      	mov	r1, r8
    1b6c:	f7ff bbbf 	b.w	12ee <__ieee754_pow+0x136>
    1b70:	9200      	str	r2, [sp, #0]
    1b72:	f7ff bb7f 	b.w	1274 <__ieee754_pow+0xbc>
    1b76:	2300      	movs	r3, #0
    1b78:	f7ff bb69 	b.w	124e <__ieee754_pow+0x96>
    1b7c:	f3af 8000 	nop.w
    1b80:	652b82fe 	.word	0x652b82fe
    1b84:	3c971547 	.word	0x3c971547
    1b88:	00000000 	.word	0x00000000
    1b8c:	3fe62e43 	.word	0x3fe62e43
    1b90:	fefa39ef 	.word	0xfefa39ef
    1b94:	3fe62e42 	.word	0x3fe62e42
    1b98:	0ca86c39 	.word	0x0ca86c39
    1b9c:	be205c61 	.word	0xbe205c61
    1ba0:	72bea4d0 	.word	0x72bea4d0
    1ba4:	3e663769 	.word	0x3e663769
    1ba8:	c5d26bf1 	.word	0xc5d26bf1
    1bac:	3ebbbd41 	.word	0x3ebbbd41
    1bb0:	af25de2c 	.word	0xaf25de2c
    1bb4:	3f11566a 	.word	0x3f11566a
    1bb8:	16bebd93 	.word	0x16bebd93
    1bbc:	3f66c16c 	.word	0x3f66c16c
    1bc0:	5555553e 	.word	0x5555553e
    1bc4:	3fc55555 	.word	0x3fc55555
    1bc8:	c2f8f359 	.word	0xc2f8f359
    1bcc:	01a56e1f 	.word	0x01a56e1f
    1bd0:	3fe00000 	.word	0x3fe00000
    1bd4:	000fffff 	.word	0x000fffff
    1bd8:	3ff00000 	.word	0x3ff00000
    1bdc:	4090cbff 	.word	0x4090cbff
    1be0:	3f6f3400 	.word	0x3f6f3400
    1be4:	00000000 	.word	0x00000000

00001be8 <_strtod_l>:
    1be8:	e92d 4ff0 	stmdb	sp!, {r4, r5, r6, r7, r8, r9, sl, fp, lr}
    1bec:	469b      	mov	fp, r3
    1bee:	2300      	movs	r3, #0
    1bf0:	b09f      	sub	sp, #124	; 0x7c
    1bf2:	931a      	str	r3, [sp, #104]	; 0x68
    1bf4:	4b9e      	ldr	r3, [pc, #632]	; (1e70 <_strtod_l+0x288>)
    1bf6:	4682      	mov	sl, r0
    1bf8:	681f      	ldr	r7, [r3, #0]
    1bfa:	460e      	mov	r6, r1
    1bfc:	4638      	mov	r0, r7
    1bfe:	9215      	str	r2, [sp, #84]	; 0x54
    1c00:	f7ff f936 	bl	e70 <strlen>
    1c04:	f04f 0800 	mov.w	r8, #0
    1c08:	4604      	mov	r4, r0
    1c0a:	f04f 0900 	mov.w	r9, #0
    1c0e:	9619      	str	r6, [sp, #100]	; 0x64
    1c10:	9b19      	ldr	r3, [sp, #100]	; 0x64
    1c12:	781a      	ldrb	r2, [r3, #0]
    1c14:	2a2b      	cmp	r2, #43	; 0x2b
    1c16:	d04c      	beq.n	1cb2 <_strtod_l+0xca>
    1c18:	d83a      	bhi.n	1c90 <_strtod_l+0xa8>
    1c1a:	2a0d      	cmp	r2, #13
    1c1c:	d833      	bhi.n	1c86 <_strtod_l+0x9e>
    1c1e:	2a08      	cmp	r2, #8
    1c20:	d833      	bhi.n	1c8a <_strtod_l+0xa2>
    1c22:	2a00      	cmp	r2, #0
    1c24:	d03d      	beq.n	1ca2 <_strtod_l+0xba>
    1c26:	2300      	movs	r3, #0
    1c28:	930a      	str	r3, [sp, #40]	; 0x28
    1c2a:	9d19      	ldr	r5, [sp, #100]	; 0x64
    1c2c:	782b      	ldrb	r3, [r5, #0]
    1c2e:	2b30      	cmp	r3, #48	; 0x30
    1c30:	f040 80aa 	bne.w	1d88 <_strtod_l+0x1a0>
    1c34:	786b      	ldrb	r3, [r5, #1]
    1c36:	f003 03df 	and.w	r3, r3, #223	; 0xdf
    1c3a:	2b58      	cmp	r3, #88	; 0x58
    1c3c:	d166      	bne.n	1d0c <_strtod_l+0x124>
    1c3e:	9b0a      	ldr	r3, [sp, #40]	; 0x28
    1c40:	4650      	mov	r0, sl
    1c42:	9301      	str	r3, [sp, #4]
    1c44:	ab1a      	add	r3, sp, #104	; 0x68
    1c46:	9300      	str	r3, [sp, #0]
    1c48:	4a8a      	ldr	r2, [pc, #552]	; (1e74 <_strtod_l+0x28c>)
    1c4a:	f8cd b008 	str.w	fp, [sp, #8]
    1c4e:	ab1b      	add	r3, sp, #108	; 0x6c
    1c50:	a919      	add	r1, sp, #100	; 0x64
    1c52:	f00e fc09 	bl	10468 <__gethex>
    1c56:	f010 0607 	ands.w	r6, r0, #7
    1c5a:	4604      	mov	r4, r0
    1c5c:	d005      	beq.n	1c6a <_strtod_l+0x82>
    1c5e:	2e06      	cmp	r6, #6
    1c60:	d129      	bne.n	1cb6 <_strtod_l+0xce>
    1c62:	2300      	movs	r3, #0
    1c64:	3501      	adds	r5, #1
    1c66:	9519      	str	r5, [sp, #100]	; 0x64
    1c68:	930a      	str	r3, [sp, #40]	; 0x28
    1c6a:	9b15      	ldr	r3, [sp, #84]	; 0x54
    1c6c:	2b00      	cmp	r3, #0
    1c6e:	f040 858a 	bne.w	2786 <CONFIG_MAIN_STACK_SIZE+0x7e6>
    1c72:	9b0a      	ldr	r3, [sp, #40]	; 0x28
    1c74:	b1d3      	cbz	r3, 1cac <_strtod_l+0xc4>
    1c76:	4642      	mov	r2, r8
    1c78:	f109 4300 	add.w	r3, r9, #2147483648	; 0x80000000
    1c7c:	4610      	mov	r0, r2
    1c7e:	4619      	mov	r1, r3
    1c80:	b01f      	add	sp, #124	; 0x7c
    1c82:	e8bd 8ff0 	ldmia.w	sp!, {r4, r5, r6, r7, r8, r9, sl, fp, pc}
    1c86:	2a20      	cmp	r2, #32
    1c88:	d1cd      	bne.n	1c26 <_strtod_l+0x3e>
    1c8a:	3301      	adds	r3, #1
    1c8c:	9319      	str	r3, [sp, #100]	; 0x64
    1c8e:	e7bf      	b.n	1c10 <_strtod_l+0x28>
    1c90:	2a2d      	cmp	r2, #45	; 0x2d
    1c92:	d1c8      	bne.n	1c26 <_strtod_l+0x3e>
    1c94:	2201      	movs	r2, #1
    1c96:	920a      	str	r2, [sp, #40]	; 0x28
    1c98:	1c5a      	adds	r2, r3, #1
    1c9a:	9219      	str	r2, [sp, #100]	; 0x64
    1c9c:	785b      	ldrb	r3, [r3, #1]
    1c9e:	2b00      	cmp	r3, #0
    1ca0:	d1c3      	bne.n	1c2a <_strtod_l+0x42>
    1ca2:	9b15      	ldr	r3, [sp, #84]	; 0x54
    1ca4:	9619      	str	r6, [sp, #100]	; 0x64
    1ca6:	2b00      	cmp	r3, #0
    1ca8:	f040 856b 	bne.w	2782 <CONFIG_MAIN_STACK_SIZE+0x7e2>
    1cac:	4642      	mov	r2, r8
    1cae:	464b      	mov	r3, r9
    1cb0:	e7e4      	b.n	1c7c <_strtod_l+0x94>
    1cb2:	2200      	movs	r2, #0
    1cb4:	e7ef      	b.n	1c96 <_strtod_l+0xae>
    1cb6:	9a1a      	ldr	r2, [sp, #104]	; 0x68
    1cb8:	b13a      	cbz	r2, 1cca <_strtod_l+0xe2>
    1cba:	2135      	movs	r1, #53	; 0x35
    1cbc:	a81c      	add	r0, sp, #112	; 0x70
    1cbe:	f015 fb67 	bl	17390 <__copybits>
    1cc2:	4650      	mov	r0, sl
    1cc4:	991a      	ldr	r1, [sp, #104]	; 0x68
    1cc6:	f00e fe8b 	bl	109e0 <_Bfree>
    1cca:	3e01      	subs	r6, #1
    1ccc:	2e04      	cmp	r6, #4
    1cce:	d806      	bhi.n	1cde <_strtod_l+0xf6>
    1cd0:	e8df f006 	tbb	[pc, r6]
    1cd4:	1714030a 	.word	0x1714030a
    1cd8:	0a          	.byte	0x0a
    1cd9:	00          	.byte	0x00
    1cda:	e9dd 891c 	ldrd	r8, r9, [sp, #112]	; 0x70
    1cde:	0721      	lsls	r1, r4, #28
    1ce0:	d5c3      	bpl.n	1c6a <_strtod_l+0x82>
    1ce2:	f049 4900 	orr.w	r9, r9, #2147483648	; 0x80000000
    1ce6:	e7c0      	b.n	1c6a <_strtod_l+0x82>
    1ce8:	9a1b      	ldr	r2, [sp, #108]	; 0x6c
    1cea:	e9dd 831c 	ldrd	r8, r3, [sp, #112]	; 0x70
    1cee:	f202 4233 	addw	r2, r2, #1075	; 0x433
    1cf2:	f423 1380 	bic.w	r3, r3, #1048576	; 0x100000
    1cf6:	ea43 5902 	orr.w	r9, r3, r2, lsl #20
    1cfa:	e7f0      	b.n	1cde <_strtod_l+0xf6>
    1cfc:	f8df 9178 	ldr.w	r9, [pc, #376]	; 1e78 <_strtod_l+0x290>
    1d00:	e7ed      	b.n	1cde <_strtod_l+0xf6>
    1d02:	f06f 4900 	mvn.w	r9, #2147483648	; 0x80000000
    1d06:	f04f 38ff 	mov.w	r8, #4294967295	; 0xffffffff
    1d0a:	e7e8      	b.n	1cde <_strtod_l+0xf6>
    1d0c:	9b19      	ldr	r3, [sp, #100]	; 0x64
    1d0e:	1c5a      	adds	r2, r3, #1
    1d10:	9219      	str	r2, [sp, #100]	; 0x64
    1d12:	785b      	ldrb	r3, [r3, #1]
    1d14:	2b30      	cmp	r3, #48	; 0x30
    1d16:	d0f9      	beq.n	1d0c <_strtod_l+0x124>
    1d18:	2b00      	cmp	r3, #0
    1d1a:	d0a6      	beq.n	1c6a <_strtod_l+0x82>
    1d1c:	2301      	movs	r3, #1
    1d1e:	9307      	str	r3, [sp, #28]
    1d20:	9b19      	ldr	r3, [sp, #100]	; 0x64
    1d22:	220a      	movs	r2, #10
    1d24:	9308      	str	r3, [sp, #32]
    1d26:	2300      	movs	r3, #0
    1d28:	469b      	mov	fp, r3
    1d2a:	e9cd 3305 	strd	r3, r3, [sp, #20]
    1d2e:	9819      	ldr	r0, [sp, #100]	; 0x64
    1d30:	7805      	ldrb	r5, [r0, #0]
    1d32:	f1a5 0330 	sub.w	r3, r5, #48	; 0x30
    1d36:	b2d9      	uxtb	r1, r3
    1d38:	2909      	cmp	r1, #9
    1d3a:	d927      	bls.n	1d8c <_strtod_l+0x1a4>
    1d3c:	4622      	mov	r2, r4
    1d3e:	4639      	mov	r1, r7
    1d40:	f015 f84a 	bl	16dd8 <strncmp>
    1d44:	2800      	cmp	r0, #0
    1d46:	d033      	beq.n	1db0 <_strtod_l+0x1c8>
    1d48:	2000      	movs	r0, #0
    1d4a:	462a      	mov	r2, r5
    1d4c:	465c      	mov	r4, fp
    1d4e:	4603      	mov	r3, r0
    1d50:	9004      	str	r0, [sp, #16]
    1d52:	2a65      	cmp	r2, #101	; 0x65
    1d54:	d001      	beq.n	1d5a <_strtod_l+0x172>
    1d56:	2a45      	cmp	r2, #69	; 0x45
    1d58:	d114      	bne.n	1d84 <_strtod_l+0x19c>
    1d5a:	b91c      	cbnz	r4, 1d64 <_strtod_l+0x17c>
    1d5c:	9a07      	ldr	r2, [sp, #28]
    1d5e:	4302      	orrs	r2, r0
    1d60:	d09f      	beq.n	1ca2 <_strtod_l+0xba>
    1d62:	2400      	movs	r4, #0
    1d64:	9e19      	ldr	r6, [sp, #100]	; 0x64
    1d66:	1c72      	adds	r2, r6, #1
    1d68:	9219      	str	r2, [sp, #100]	; 0x64
    1d6a:	7872      	ldrb	r2, [r6, #1]
    1d6c:	2a2b      	cmp	r2, #43	; 0x2b
    1d6e:	d079      	beq.n	1e64 <_strtod_l+0x27c>
    1d70:	2a2d      	cmp	r2, #45	; 0x2d
    1d72:	f000 8083 	beq.w	1e7c <_strtod_l+0x294>
    1d76:	2700      	movs	r7, #0
    1d78:	f1a2 0130 	sub.w	r1, r2, #48	; 0x30
    1d7c:	2909      	cmp	r1, #9
    1d7e:	f240 8083 	bls.w	1e88 <_strtod_l+0x2a0>
    1d82:	9619      	str	r6, [sp, #100]	; 0x64
    1d84:	2500      	movs	r5, #0
    1d86:	e09f      	b.n	1ec8 <_strtod_l+0x2e0>
    1d88:	2300      	movs	r3, #0
    1d8a:	e7c8      	b.n	1d1e <_strtod_l+0x136>
    1d8c:	f1bb 0f08 	cmp.w	fp, #8
    1d90:	bfd5      	itete	le
    1d92:	9906      	ldrle	r1, [sp, #24]
    1d94:	9905      	ldrgt	r1, [sp, #20]
    1d96:	fb02 3301 	mlale	r3, r2, r1, r3
    1d9a:	fb02 3301 	mlagt	r3, r2, r1, r3
    1d9e:	f100 0001 	add.w	r0, r0, #1
    1da2:	bfd4      	ite	le
    1da4:	9306      	strle	r3, [sp, #24]
    1da6:	9305      	strgt	r3, [sp, #20]
    1da8:	f10b 0b01 	add.w	fp, fp, #1
    1dac:	9019      	str	r0, [sp, #100]	; 0x64
    1dae:	e7be      	b.n	1d2e <_strtod_l+0x146>
    1db0:	9b19      	ldr	r3, [sp, #100]	; 0x64
    1db2:	191a      	adds	r2, r3, r4
    1db4:	9219      	str	r2, [sp, #100]	; 0x64
    1db6:	5d1a      	ldrb	r2, [r3, r4]
    1db8:	f1bb 0f00 	cmp.w	fp, #0
    1dbc:	d036      	beq.n	1e2c <_strtod_l+0x244>
    1dbe:	465c      	mov	r4, fp
    1dc0:	9004      	str	r0, [sp, #16]
    1dc2:	f1a2 0330 	sub.w	r3, r2, #48	; 0x30
    1dc6:	2b09      	cmp	r3, #9
    1dc8:	d912      	bls.n	1df0 <_strtod_l+0x208>
    1dca:	2301      	movs	r3, #1
    1dcc:	e7c1      	b.n	1d52 <_strtod_l+0x16a>
    1dce:	9b19      	ldr	r3, [sp, #100]	; 0x64
    1dd0:	3001      	adds	r0, #1
    1dd2:	1c5a      	adds	r2, r3, #1
    1dd4:	9219      	str	r2, [sp, #100]	; 0x64
    1dd6:	785a      	ldrb	r2, [r3, #1]
    1dd8:	2a30      	cmp	r2, #48	; 0x30
    1dda:	d0f8      	beq.n	1dce <_strtod_l+0x1e6>
    1ddc:	f1a2 0331 	sub.w	r3, r2, #49	; 0x31
    1de0:	2b08      	cmp	r3, #8
    1de2:	f200 84d5 	bhi.w	2790 <CONFIG_MAIN_STACK_SIZE+0x7f0>
    1de6:	9004      	str	r0, [sp, #16]
    1de8:	2000      	movs	r0, #0
    1dea:	4604      	mov	r4, r0
    1dec:	9b19      	ldr	r3, [sp, #100]	; 0x64
    1dee:	9308      	str	r3, [sp, #32]
    1df0:	3a30      	subs	r2, #48	; 0x30
    1df2:	f100 0301 	add.w	r3, r0, #1
    1df6:	d013      	beq.n	1e20 <_strtod_l+0x238>
    1df8:	9904      	ldr	r1, [sp, #16]
    1dfa:	1905      	adds	r5, r0, r4
    1dfc:	4419      	add	r1, r3
    1dfe:	9104      	str	r1, [sp, #16]
    1e00:	4623      	mov	r3, r4
    1e02:	210a      	movs	r1, #10
    1e04:	42ab      	cmp	r3, r5
    1e06:	d113      	bne.n	1e30 <_strtod_l+0x248>
    1e08:	1823      	adds	r3, r4, r0
    1e0a:	2b08      	cmp	r3, #8
    1e0c:	f104 0401 	add.w	r4, r4, #1
    1e10:	4404      	add	r4, r0
    1e12:	dc1b      	bgt.n	1e4c <_strtod_l+0x264>
    1e14:	230a      	movs	r3, #10
    1e16:	9906      	ldr	r1, [sp, #24]
    1e18:	fb03 2301 	mla	r3, r3, r1, r2
    1e1c:	9306      	str	r3, [sp, #24]
    1e1e:	2300      	movs	r3, #0
    1e20:	9a19      	ldr	r2, [sp, #100]	; 0x64
    1e22:	4618      	mov	r0, r3
    1e24:	1c51      	adds	r1, r2, #1
    1e26:	9119      	str	r1, [sp, #100]	; 0x64
    1e28:	7852      	ldrb	r2, [r2, #1]
    1e2a:	e7ca      	b.n	1dc2 <_strtod_l+0x1da>
    1e2c:	4658      	mov	r0, fp
    1e2e:	e7d3      	b.n	1dd8 <_strtod_l+0x1f0>
    1e30:	2b08      	cmp	r3, #8
    1e32:	dc04      	bgt.n	1e3e <_strtod_l+0x256>
    1e34:	9f06      	ldr	r7, [sp, #24]
    1e36:	434f      	muls	r7, r1
    1e38:	9706      	str	r7, [sp, #24]
    1e3a:	3301      	adds	r3, #1
    1e3c:	e7e2      	b.n	1e04 <_strtod_l+0x21c>
    1e3e:	1c5f      	adds	r7, r3, #1
    1e40:	2f10      	cmp	r7, #16
    1e42:	bfde      	ittt	le
    1e44:	9f05      	ldrle	r7, [sp, #20]
    1e46:	434f      	mulle	r7, r1
    1e48:	9705      	strle	r7, [sp, #20]
    1e4a:	e7f6      	b.n	1e3a <_strtod_l+0x252>
    1e4c:	2c10      	cmp	r4, #16
    1e4e:	bfdf      	itttt	le
    1e50:	230a      	movle	r3, #10
    1e52:	9905      	ldrle	r1, [sp, #20]
    1e54:	fb03 2301 	mlale	r3, r3, r1, r2
    1e58:	9305      	strle	r3, [sp, #20]
    1e5a:	e7e0      	b.n	1e1e <_strtod_l+0x236>
    1e5c:	2300      	movs	r3, #0
    1e5e:	9304      	str	r3, [sp, #16]
    1e60:	2301      	movs	r3, #1
    1e62:	e77b      	b.n	1d5c <_strtod_l+0x174>
    1e64:	2700      	movs	r7, #0
    1e66:	1cb2      	adds	r2, r6, #2
    1e68:	9219      	str	r2, [sp, #100]	; 0x64
    1e6a:	78b2      	ldrb	r2, [r6, #2]
    1e6c:	e784      	b.n	1d78 <_strtod_l+0x190>
    1e6e:	bf00      	nop
    1e70:	00017cd8 	.word	0x00017cd8
    1e74:	00017cb0 	.word	0x00017cb0
    1e78:	7ff00000 	.word	0x7ff00000
    1e7c:	2701      	movs	r7, #1
    1e7e:	e7f2      	b.n	1e66 <_strtod_l+0x27e>
    1e80:	9a19      	ldr	r2, [sp, #100]	; 0x64
    1e82:	1c51      	adds	r1, r2, #1
    1e84:	9119      	str	r1, [sp, #100]	; 0x64
    1e86:	7852      	ldrb	r2, [r2, #1]
    1e88:	2a30      	cmp	r2, #48	; 0x30
    1e8a:	d0f9      	beq.n	1e80 <_strtod_l+0x298>
    1e8c:	f1a2 0131 	sub.w	r1, r2, #49	; 0x31
    1e90:	2908      	cmp	r1, #8
    1e92:	f63f af77 	bhi.w	1d84 <_strtod_l+0x19c>
    1e96:	f04f 0e0a 	mov.w	lr, #10
    1e9a:	f1a2 0c30 	sub.w	ip, r2, #48	; 0x30
    1e9e:	9a19      	ldr	r2, [sp, #100]	; 0x64
    1ea0:	9209      	str	r2, [sp, #36]	; 0x24
    1ea2:	9a19      	ldr	r2, [sp, #100]	; 0x64
    1ea4:	1c51      	adds	r1, r2, #1
    1ea6:	9119      	str	r1, [sp, #100]	; 0x64
    1ea8:	7852      	ldrb	r2, [r2, #1]
    1eaa:	f1a2 0530 	sub.w	r5, r2, #48	; 0x30
    1eae:	2d09      	cmp	r5, #9
    1eb0:	d935      	bls.n	1f1e <_strtod_l+0x336>
    1eb2:	9d09      	ldr	r5, [sp, #36]	; 0x24
    1eb4:	1b49      	subs	r1, r1, r5
    1eb6:	2908      	cmp	r1, #8
    1eb8:	f644 651f 	movw	r5, #19999	; 0x4e1f
    1ebc:	dc02      	bgt.n	1ec4 <_strtod_l+0x2dc>
    1ebe:	4565      	cmp	r5, ip
    1ec0:	bfa8      	it	ge
    1ec2:	4665      	movge	r5, ip
    1ec4:	b107      	cbz	r7, 1ec8 <_strtod_l+0x2e0>
    1ec6:	426d      	negs	r5, r5
    1ec8:	2c00      	cmp	r4, #0
    1eca:	d14c      	bne.n	1f66 <_strtod_l+0x37e>
    1ecc:	9907      	ldr	r1, [sp, #28]
    1ece:	4301      	orrs	r1, r0
    1ed0:	f47f aecb 	bne.w	1c6a <_strtod_l+0x82>
    1ed4:	2b00      	cmp	r3, #0
    1ed6:	f47f aee4 	bne.w	1ca2 <_strtod_l+0xba>
    1eda:	2a69      	cmp	r2, #105	; 0x69
    1edc:	d026      	beq.n	1f2c <_strtod_l+0x344>
    1ede:	dc23      	bgt.n	1f28 <_strtod_l+0x340>
    1ee0:	2a49      	cmp	r2, #73	; 0x49
    1ee2:	d023      	beq.n	1f2c <_strtod_l+0x344>
    1ee4:	2a4e      	cmp	r2, #78	; 0x4e
    1ee6:	f47f aedc 	bne.w	1ca2 <_strtod_l+0xba>
    1eea:	499d      	ldr	r1, [pc, #628]	; (2160 <CONFIG_MAIN_STACK_SIZE+0x1c0>)
    1eec:	a819      	add	r0, sp, #100	; 0x64
    1eee:	f015 f8ef 	bl	170d0 <__match>
    1ef2:	2800      	cmp	r0, #0
    1ef4:	f43f aed5 	beq.w	1ca2 <_strtod_l+0xba>
    1ef8:	9b19      	ldr	r3, [sp, #100]	; 0x64
    1efa:	781b      	ldrb	r3, [r3, #0]
    1efc:	2b28      	cmp	r3, #40	; 0x28
    1efe:	d12c      	bne.n	1f5a <_strtod_l+0x372>
    1f00:	4998      	ldr	r1, [pc, #608]	; (2164 <CONFIG_MAIN_STACK_SIZE+0x1c4>)
    1f02:	aa1c      	add	r2, sp, #112	; 0x70
    1f04:	a819      	add	r0, sp, #100	; 0x64
    1f06:	f015 f8f7 	bl	170f8 <__hexnan>
    1f0a:	2805      	cmp	r0, #5
    1f0c:	d125      	bne.n	1f5a <_strtod_l+0x372>
    1f0e:	9b1d      	ldr	r3, [sp, #116]	; 0x74
    1f10:	f8dd 8070 	ldr.w	r8, [sp, #112]	; 0x70
    1f14:	f043 49ff 	orr.w	r9, r3, #2139095040	; 0x7f800000
    1f18:	f449 09e0 	orr.w	r9, r9, #7340032	; 0x700000
    1f1c:	e6a5      	b.n	1c6a <_strtod_l+0x82>
    1f1e:	fb0e 2c0c 	mla	ip, lr, ip, r2
    1f22:	f1ac 0c30 	sub.w	ip, ip, #48	; 0x30
    1f26:	e7bc      	b.n	1ea2 <_strtod_l+0x2ba>
    1f28:	2a6e      	cmp	r2, #110	; 0x6e
    1f2a:	e7dc      	b.n	1ee6 <_strtod_l+0x2fe>
    1f2c:	498e      	ldr	r1, [pc, #568]	; (2168 <CONFIG_MAIN_STACK_SIZE+0x1c8>)
    1f2e:	a819      	add	r0, sp, #100	; 0x64
    1f30:	f015 f8ce 	bl	170d0 <__match>
    1f34:	2800      	cmp	r0, #0
    1f36:	f43f aeb4 	beq.w	1ca2 <_strtod_l+0xba>
    1f3a:	9b19      	ldr	r3, [sp, #100]	; 0x64
    1f3c:	498b      	ldr	r1, [pc, #556]	; (216c <CONFIG_MAIN_STACK_SIZE+0x1cc>)
    1f3e:	3b01      	subs	r3, #1
    1f40:	a819      	add	r0, sp, #100	; 0x64
    1f42:	9319      	str	r3, [sp, #100]	; 0x64
    1f44:	f015 f8c4 	bl	170d0 <__match>
    1f48:	b910      	cbnz	r0, 1f50 <_strtod_l+0x368>
    1f4a:	9b19      	ldr	r3, [sp, #100]	; 0x64
    1f4c:	3301      	adds	r3, #1
    1f4e:	9319      	str	r3, [sp, #100]	; 0x64
    1f50:	f04f 0800 	mov.w	r8, #0
    1f54:	f8df 9218 	ldr.w	r9, [pc, #536]	; 2170 <CONFIG_MAIN_STACK_SIZE+0x1d0>
    1f58:	e687      	b.n	1c6a <_strtod_l+0x82>
    1f5a:	4886      	ldr	r0, [pc, #536]	; (2174 <CONFIG_MAIN_STACK_SIZE+0x1d4>)
    1f5c:	f00b f99e 	bl	d29c <nan>
    1f60:	4680      	mov	r8, r0
    1f62:	4689      	mov	r9, r1
    1f64:	e681      	b.n	1c6a <_strtod_l+0x82>
    1f66:	9b04      	ldr	r3, [sp, #16]
    1f68:	f1bb 0f00 	cmp.w	fp, #0
    1f6c:	bf08      	it	eq
    1f6e:	46a3      	moveq	fp, r4
    1f70:	1aeb      	subs	r3, r5, r3
    1f72:	2c10      	cmp	r4, #16
    1f74:	9806      	ldr	r0, [sp, #24]
    1f76:	4626      	mov	r6, r4
    1f78:	9307      	str	r3, [sp, #28]
    1f7a:	bfa8      	it	ge
    1f7c:	2610      	movge	r6, #16
    1f7e:	f7fe f9f9 	bl	374 <__aeabi_ui2d>
    1f82:	2c09      	cmp	r4, #9
    1f84:	4680      	mov	r8, r0
    1f86:	4689      	mov	r9, r1
    1f88:	dd13      	ble.n	1fb2 <CONFIG_MAIN_STACK_SIZE+0x12>
    1f8a:	4b7b      	ldr	r3, [pc, #492]	; (2178 <CONFIG_MAIN_STACK_SIZE+0x1d8>)
    1f8c:	eb03 03c6 	add.w	r3, r3, r6, lsl #3
    1f90:	e953 2312 	ldrd	r2, r3, [r3, #-72]	; 0x48
    1f94:	f7fe fa68 	bl	468 <__aeabi_dmul>
    1f98:	4680      	mov	r8, r0
    1f9a:	9805      	ldr	r0, [sp, #20]
    1f9c:	4689      	mov	r9, r1
    1f9e:	f7fe f9e9 	bl	374 <__aeabi_ui2d>
    1fa2:	4602      	mov	r2, r0
    1fa4:	460b      	mov	r3, r1
    1fa6:	4640      	mov	r0, r8
    1fa8:	4649      	mov	r1, r9
    1faa:	f7fe f8a7 	bl	fc <__adddf3>
    1fae:	4680      	mov	r8, r0
    1fb0:	4689      	mov	r9, r1
    1fb2:	2c0f      	cmp	r4, #15
    1fb4:	dc36      	bgt.n	2024 <CONFIG_MAIN_STACK_SIZE+0x84>
    1fb6:	9b07      	ldr	r3, [sp, #28]
    1fb8:	2b00      	cmp	r3, #0
    1fba:	f43f ae56 	beq.w	1c6a <_strtod_l+0x82>
    1fbe:	dd22      	ble.n	2006 <CONFIG_MAIN_STACK_SIZE+0x66>
    1fc0:	2b16      	cmp	r3, #22
    1fc2:	dc09      	bgt.n	1fd8 <CONFIG_MAIN_STACK_SIZE+0x38>
    1fc4:	496c      	ldr	r1, [pc, #432]	; (2178 <CONFIG_MAIN_STACK_SIZE+0x1d8>)
    1fc6:	4642      	mov	r2, r8
    1fc8:	eb01 01c3 	add.w	r1, r1, r3, lsl #3
    1fcc:	464b      	mov	r3, r9
    1fce:	e9d1 0100 	ldrd	r0, r1, [r1]
    1fd2:	f7fe fa49 	bl	468 <__aeabi_dmul>
    1fd6:	e7c3      	b.n	1f60 <_strtod_l+0x378>
    1fd8:	9a07      	ldr	r2, [sp, #28]
    1fda:	f1c4 0325 	rsb	r3, r4, #37	; 0x25
    1fde:	4293      	cmp	r3, r2
    1fe0:	db20      	blt.n	2024 <CONFIG_MAIN_STACK_SIZE+0x84>
    1fe2:	4d65      	ldr	r5, [pc, #404]	; (2178 <CONFIG_MAIN_STACK_SIZE+0x1d8>)
    1fe4:	f1c4 040f 	rsb	r4, r4, #15
    1fe8:	eb05 01c4 	add.w	r1, r5, r4, lsl #3
    1fec:	4642      	mov	r2, r8
    1fee:	e9d1 0100 	ldrd	r0, r1, [r1]
    1ff2:	464b      	mov	r3, r9
    1ff4:	f7fe fa38 	bl	468 <__aeabi_dmul>
    1ff8:	9b07      	ldr	r3, [sp, #28]
    1ffa:	1b1c      	subs	r4, r3, r4
    1ffc:	eb05 05c4 	add.w	r5, r5, r4, lsl #3
    2000:	e9d5 2300 	ldrd	r2, r3, [r5]
    2004:	e7e5      	b.n	1fd2 <CONFIG_MAIN_STACK_SIZE+0x32>
    2006:	9b07      	ldr	r3, [sp, #28]
    2008:	3316      	adds	r3, #22
    200a:	db0b      	blt.n	2024 <CONFIG_MAIN_STACK_SIZE+0x84>
    200c:	9b04      	ldr	r3, [sp, #16]
    200e:	4640      	mov	r0, r8
    2010:	1b5d      	subs	r5, r3, r5
    2012:	4b59      	ldr	r3, [pc, #356]	; (2178 <CONFIG_MAIN_STACK_SIZE+0x1d8>)
    2014:	4649      	mov	r1, r9
    2016:	eb03 05c5 	add.w	r5, r3, r5, lsl #3
    201a:	e9d5 2300 	ldrd	r2, r3, [r5]
    201e:	f7fe fb4d 	bl	6bc <__aeabi_ddiv>
    2022:	e79d      	b.n	1f60 <_strtod_l+0x378>
    2024:	9b07      	ldr	r3, [sp, #28]
    2026:	1ba6      	subs	r6, r4, r6
    2028:	441e      	add	r6, r3
    202a:	2e00      	cmp	r6, #0
    202c:	dd74      	ble.n	2118 <CONFIG_MAIN_STACK_SIZE+0x178>
    202e:	f016 030f 	ands.w	r3, r6, #15
    2032:	d00a      	beq.n	204a <CONFIG_MAIN_STACK_SIZE+0xaa>
    2034:	4950      	ldr	r1, [pc, #320]	; (2178 <CONFIG_MAIN_STACK_SIZE+0x1d8>)
    2036:	4642      	mov	r2, r8
    2038:	eb01 01c3 	add.w	r1, r1, r3, lsl #3
    203c:	e9d1 0100 	ldrd	r0, r1, [r1]
    2040:	464b      	mov	r3, r9
    2042:	f7fe fa11 	bl	468 <__aeabi_dmul>
    2046:	4680      	mov	r8, r0
    2048:	4689      	mov	r9, r1
    204a:	f036 060f 	bics.w	r6, r6, #15
    204e:	d052      	beq.n	20f6 <CONFIG_MAIN_STACK_SIZE+0x156>
    2050:	f5b6 7f9a 	cmp.w	r6, #308	; 0x134
    2054:	dd27      	ble.n	20a6 <CONFIG_MAIN_STACK_SIZE+0x106>
    2056:	f04f 0b00 	mov.w	fp, #0
    205a:	f8cd b010 	str.w	fp, [sp, #16]
    205e:	f8cd b020 	str.w	fp, [sp, #32]
    2062:	f8cd b018 	str.w	fp, [sp, #24]
    2066:	2322      	movs	r3, #34	; 0x22
    2068:	f04f 0800 	mov.w	r8, #0
    206c:	f8df 9100 	ldr.w	r9, [pc, #256]	; 2170 <CONFIG_MAIN_STACK_SIZE+0x1d0>
    2070:	f8ca 3000 	str.w	r3, [sl]
    2074:	9b08      	ldr	r3, [sp, #32]
    2076:	2b00      	cmp	r3, #0
    2078:	f43f adf7 	beq.w	1c6a <_strtod_l+0x82>
    207c:	4650      	mov	r0, sl
    207e:	991a      	ldr	r1, [sp, #104]	; 0x68
    2080:	f00e fcae 	bl	109e0 <_Bfree>
    2084:	4650      	mov	r0, sl
    2086:	9906      	ldr	r1, [sp, #24]
    2088:	f00e fcaa 	bl	109e0 <_Bfree>
    208c:	4650      	mov	r0, sl
    208e:	9904      	ldr	r1, [sp, #16]
    2090:	f00e fca6 	bl	109e0 <_Bfree>
    2094:	4650      	mov	r0, sl
    2096:	9908      	ldr	r1, [sp, #32]
    2098:	f00e fca2 	bl	109e0 <_Bfree>
    209c:	4659      	mov	r1, fp
    209e:	4650      	mov	r0, sl
    20a0:	f00e fc9e 	bl	109e0 <_Bfree>
    20a4:	e5e1      	b.n	1c6a <_strtod_l+0x82>
    20a6:	4b35      	ldr	r3, [pc, #212]	; (217c <CONFIG_MAIN_STACK_SIZE+0x1dc>)
    20a8:	4640      	mov	r0, r8
    20aa:	9305      	str	r3, [sp, #20]
    20ac:	2300      	movs	r3, #0
    20ae:	4649      	mov	r1, r9
    20b0:	461f      	mov	r7, r3
    20b2:	1136      	asrs	r6, r6, #4
    20b4:	2e01      	cmp	r6, #1
    20b6:	dc21      	bgt.n	20fc <CONFIG_MAIN_STACK_SIZE+0x15c>
    20b8:	b10b      	cbz	r3, 20be <CONFIG_MAIN_STACK_SIZE+0x11e>
    20ba:	4680      	mov	r8, r0
    20bc:	4689      	mov	r9, r1
    20be:	4b2f      	ldr	r3, [pc, #188]	; (217c <CONFIG_MAIN_STACK_SIZE+0x1dc>)
    20c0:	f1a9 7954 	sub.w	r9, r9, #55574528	; 0x3500000
    20c4:	eb03 07c7 	add.w	r7, r3, r7, lsl #3
    20c8:	4642      	mov	r2, r8
    20ca:	e9d7 0100 	ldrd	r0, r1, [r7]
    20ce:	464b      	mov	r3, r9
    20d0:	f7fe f9ca 	bl	468 <__aeabi_dmul>
    20d4:	4b26      	ldr	r3, [pc, #152]	; (2170 <CONFIG_MAIN_STACK_SIZE+0x1d0>)
    20d6:	460a      	mov	r2, r1
    20d8:	400b      	ands	r3, r1
    20da:	4929      	ldr	r1, [pc, #164]	; (2180 <CONFIG_MAIN_STACK_SIZE+0x1e0>)
    20dc:	4680      	mov	r8, r0
    20de:	428b      	cmp	r3, r1
    20e0:	d8b9      	bhi.n	2056 <CONFIG_MAIN_STACK_SIZE+0xb6>
    20e2:	f5a1 1180 	sub.w	r1, r1, #1048576	; 0x100000
    20e6:	428b      	cmp	r3, r1
    20e8:	bf86      	itte	hi
    20ea:	f04f 38ff 	movhi.w	r8, #4294967295	; 0xffffffff
    20ee:	f8df 9094 	ldrhi.w	r9, [pc, #148]	; 2184 <CONFIG_MAIN_STACK_SIZE+0x1e4>
    20f2:	f102 7954 	addls.w	r9, r2, #55574528	; 0x3500000
    20f6:	2300      	movs	r3, #0
    20f8:	9305      	str	r3, [sp, #20]
    20fa:	e07f      	b.n	21fc <CONFIG_MAIN_STACK_SIZE+0x25c>
    20fc:	07f2      	lsls	r2, r6, #31
    20fe:	d505      	bpl.n	210c <CONFIG_MAIN_STACK_SIZE+0x16c>
    2100:	9b05      	ldr	r3, [sp, #20]
    2102:	e9d3 2300 	ldrd	r2, r3, [r3]
    2106:	f7fe f9af 	bl	468 <__aeabi_dmul>
    210a:	2301      	movs	r3, #1
    210c:	9a05      	ldr	r2, [sp, #20]
    210e:	3701      	adds	r7, #1
    2110:	3208      	adds	r2, #8
    2112:	1076      	asrs	r6, r6, #1
    2114:	9205      	str	r2, [sp, #20]
    2116:	e7cd      	b.n	20b4 <CONFIG_MAIN_STACK_SIZE+0x114>
    2118:	d0ed      	beq.n	20f6 <CONFIG_MAIN_STACK_SIZE+0x156>
    211a:	4276      	negs	r6, r6
    211c:	f016 020f 	ands.w	r2, r6, #15
    2120:	d00a      	beq.n	2138 <CONFIG_MAIN_STACK_SIZE+0x198>
    2122:	4b15      	ldr	r3, [pc, #84]	; (2178 <CONFIG_MAIN_STACK_SIZE+0x1d8>)
    2124:	4640      	mov	r0, r8
    2126:	eb03 03c2 	add.w	r3, r3, r2, lsl #3
    212a:	4649      	mov	r1, r9
    212c:	e9d3 2300 	ldrd	r2, r3, [r3]
    2130:	f7fe fac4 	bl	6bc <__aeabi_ddiv>
    2134:	4680      	mov	r8, r0
    2136:	4689      	mov	r9, r1
    2138:	1136      	asrs	r6, r6, #4
    213a:	d0dc      	beq.n	20f6 <CONFIG_MAIN_STACK_SIZE+0x156>
    213c:	2e1f      	cmp	r6, #31
    213e:	dd23      	ble.n	2188 <CONFIG_MAIN_STACK_SIZE+0x1e8>
    2140:	f04f 0b00 	mov.w	fp, #0
    2144:	f8cd b010 	str.w	fp, [sp, #16]
    2148:	f8cd b020 	str.w	fp, [sp, #32]
    214c:	f8cd b018 	str.w	fp, [sp, #24]
    2150:	2322      	movs	r3, #34	; 0x22
    2152:	f04f 0800 	mov.w	r8, #0
    2156:	f04f 0900 	mov.w	r9, #0
    215a:	f8ca 3000 	str.w	r3, [sl]
    215e:	e789      	b.n	2074 <CONFIG_MAIN_STACK_SIZE+0xd4>
    2160:	000188af 	.word	0x000188af
    2164:	00017cc4 	.word	0x00017cc4
    2168:	00018bf9 	.word	0x00018bf9
    216c:	00018ca5 	.word	0x00018ca5
    2170:	7ff00000 	.word	0x7ff00000
    2174:	00018987 	.word	0x00018987
    2178:	000178d0 	.word	0x000178d0
    217c:	000178a8 	.word	0x000178a8
    2180:	7ca00000 	.word	0x7ca00000
    2184:	7fefffff 	.word	0x7fefffff
    2188:	f016 0310 	ands.w	r3, r6, #16
    218c:	bf18      	it	ne
    218e:	236a      	movne	r3, #106	; 0x6a
    2190:	4640      	mov	r0, r8
    2192:	9305      	str	r3, [sp, #20]
    2194:	4649      	mov	r1, r9
    2196:	2300      	movs	r3, #0
    2198:	4fb0      	ldr	r7, [pc, #704]	; (245c <CONFIG_MAIN_STACK_SIZE+0x4bc>)
    219a:	07f2      	lsls	r2, r6, #31
    219c:	d504      	bpl.n	21a8 <CONFIG_MAIN_STACK_SIZE+0x208>
    219e:	e9d7 2300 	ldrd	r2, r3, [r7]
    21a2:	f7fe f961 	bl	468 <__aeabi_dmul>
    21a6:	2301      	movs	r3, #1
    21a8:	1076      	asrs	r6, r6, #1
    21aa:	f107 0708 	add.w	r7, r7, #8
    21ae:	d1f4      	bne.n	219a <CONFIG_MAIN_STACK_SIZE+0x1fa>
    21b0:	b10b      	cbz	r3, 21b6 <CONFIG_MAIN_STACK_SIZE+0x216>
    21b2:	4680      	mov	r8, r0
    21b4:	4689      	mov	r9, r1
    21b6:	9b05      	ldr	r3, [sp, #20]
    21b8:	b1c3      	cbz	r3, 21ec <CONFIG_MAIN_STACK_SIZE+0x24c>
    21ba:	f3c9 520a 	ubfx	r2, r9, #20, #11
    21be:	f1c2 036b 	rsb	r3, r2, #107	; 0x6b
    21c2:	2b00      	cmp	r3, #0
    21c4:	4649      	mov	r1, r9
    21c6:	dd11      	ble.n	21ec <CONFIG_MAIN_STACK_SIZE+0x24c>
    21c8:	2b1f      	cmp	r3, #31
    21ca:	f340 8127 	ble.w	241c <CONFIG_MAIN_STACK_SIZE+0x47c>
    21ce:	2b34      	cmp	r3, #52	; 0x34
    21d0:	bfd8      	it	le
    21d2:	f04f 33ff 	movle.w	r3, #4294967295	; 0xffffffff
    21d6:	f04f 0800 	mov.w	r8, #0
    21da:	bfcf      	iteee	gt
    21dc:	f04f 795c 	movgt.w	r9, #57671680	; 0x3700000
    21e0:	f1c2 024b 	rsble	r2, r2, #75	; 0x4b
    21e4:	fa03 f202 	lslle.w	r2, r3, r2
    21e8:	ea02 0901 	andle.w	r9, r2, r1
    21ec:	2200      	movs	r2, #0
    21ee:	2300      	movs	r3, #0
    21f0:	4640      	mov	r0, r8
    21f2:	4649      	mov	r1, r9
    21f4:	f7fe fba0 	bl	938 <__aeabi_dcmpeq>
    21f8:	2800      	cmp	r0, #0
    21fa:	d1a1      	bne.n	2140 <CONFIG_MAIN_STACK_SIZE+0x1a0>
    21fc:	9b06      	ldr	r3, [sp, #24]
    21fe:	465a      	mov	r2, fp
    2200:	9300      	str	r3, [sp, #0]
    2202:	4650      	mov	r0, sl
    2204:	4623      	mov	r3, r4
    2206:	9908      	ldr	r1, [sp, #32]
    2208:	f00e fc52 	bl	10ab0 <__s2b>
    220c:	9008      	str	r0, [sp, #32]
    220e:	2800      	cmp	r0, #0
    2210:	f43f af21 	beq.w	2056 <CONFIG_MAIN_STACK_SIZE+0xb6>
    2214:	9b04      	ldr	r3, [sp, #16]
    2216:	f04f 0b00 	mov.w	fp, #0
    221a:	1b5d      	subs	r5, r3, r5
    221c:	9b07      	ldr	r3, [sp, #28]
    221e:	f8cd b010 	str.w	fp, [sp, #16]
    2222:	2b00      	cmp	r3, #0
    2224:	bfb4      	ite	lt
    2226:	462b      	movlt	r3, r5
    2228:	2300      	movge	r3, #0
    222a:	930e      	str	r3, [sp, #56]	; 0x38
    222c:	9b07      	ldr	r3, [sp, #28]
    222e:	ea23 73e3 	bic.w	r3, r3, r3, asr #31
    2232:	9314      	str	r3, [sp, #80]	; 0x50
    2234:	9b08      	ldr	r3, [sp, #32]
    2236:	4650      	mov	r0, sl
    2238:	6859      	ldr	r1, [r3, #4]
    223a:	f00e fb91 	bl	10960 <_Balloc>
    223e:	9006      	str	r0, [sp, #24]
    2240:	2800      	cmp	r0, #0
    2242:	f43f af10 	beq.w	2066 <CONFIG_MAIN_STACK_SIZE+0xc6>
    2246:	9b08      	ldr	r3, [sp, #32]
    2248:	300c      	adds	r0, #12
    224a:	691a      	ldr	r2, [r3, #16]
    224c:	f103 010c 	add.w	r1, r3, #12
    2250:	3202      	adds	r2, #2
    2252:	0092      	lsls	r2, r2, #2
    2254:	f014 fd12 	bl	16c7c <memcpy>
    2258:	ab1c      	add	r3, sp, #112	; 0x70
    225a:	9301      	str	r3, [sp, #4]
    225c:	ab1b      	add	r3, sp, #108	; 0x6c
    225e:	9300      	str	r3, [sp, #0]
    2260:	4642      	mov	r2, r8
    2262:	464b      	mov	r3, r9
    2264:	4650      	mov	r0, sl
    2266:	e9cd 890c 	strd	r8, r9, [sp, #48]	; 0x30
    226a:	f00e fef9 	bl	11060 <__d2b>
    226e:	901a      	str	r0, [sp, #104]	; 0x68
    2270:	2800      	cmp	r0, #0
    2272:	f43f aef8 	beq.w	2066 <CONFIG_MAIN_STACK_SIZE+0xc6>
    2276:	2101      	movs	r1, #1
    2278:	4650      	mov	r0, sl
    227a:	f00e fc63 	bl	10b44 <__i2b>
    227e:	4603      	mov	r3, r0
    2280:	9004      	str	r0, [sp, #16]
    2282:	2800      	cmp	r0, #0
    2284:	f43f aeef 	beq.w	2066 <CONFIG_MAIN_STACK_SIZE+0xc6>
    2288:	9d1b      	ldr	r5, [sp, #108]	; 0x6c
    228a:	9a1c      	ldr	r2, [sp, #112]	; 0x70
    228c:	2d00      	cmp	r5, #0
    228e:	bfab      	itete	ge
    2290:	9b0e      	ldrge	r3, [sp, #56]	; 0x38
    2292:	9b14      	ldrlt	r3, [sp, #80]	; 0x50
    2294:	18ee      	addge	r6, r5, r3
    2296:	1b5c      	sublt	r4, r3, r5
    2298:	9b05      	ldr	r3, [sp, #20]
    229a:	bfa8      	it	ge
    229c:	9c14      	ldrge	r4, [sp, #80]	; 0x50
    229e:	eba5 0503 	sub.w	r5, r5, r3
    22a2:	4415      	add	r5, r2
    22a4:	4b6e      	ldr	r3, [pc, #440]	; (2460 <CONFIG_MAIN_STACK_SIZE+0x4c0>)
    22a6:	f105 35ff 	add.w	r5, r5, #4294967295	; 0xffffffff
    22aa:	bfb8      	it	lt
    22ac:	9e0e      	ldrlt	r6, [sp, #56]	; 0x38
    22ae:	429d      	cmp	r5, r3
    22b0:	f1c2 0236 	rsb	r2, r2, #54	; 0x36
    22b4:	f280 80c4 	bge.w	2440 <CONFIG_MAIN_STACK_SIZE+0x4a0>
    22b8:	1b5b      	subs	r3, r3, r5
    22ba:	2b1f      	cmp	r3, #31
    22bc:	f04f 0701 	mov.w	r7, #1
    22c0:	eba2 0203 	sub.w	r2, r2, r3
    22c4:	f300 80b1 	bgt.w	242a <CONFIG_MAIN_STACK_SIZE+0x48a>
    22c8:	2500      	movs	r5, #0
    22ca:	fa07 f303 	lsl.w	r3, r7, r3
    22ce:	930f      	str	r3, [sp, #60]	; 0x3c
    22d0:	18b7      	adds	r7, r6, r2
    22d2:	9b05      	ldr	r3, [sp, #20]
    22d4:	42be      	cmp	r6, r7
    22d6:	4414      	add	r4, r2
    22d8:	441c      	add	r4, r3
    22da:	4633      	mov	r3, r6
    22dc:	bfa8      	it	ge
    22de:	463b      	movge	r3, r7
    22e0:	42a3      	cmp	r3, r4
    22e2:	bfa8      	it	ge
    22e4:	4623      	movge	r3, r4
    22e6:	2b00      	cmp	r3, #0
    22e8:	bfc2      	ittt	gt
    22ea:	1aff      	subgt	r7, r7, r3
    22ec:	1ae4      	subgt	r4, r4, r3
    22ee:	1af6      	subgt	r6, r6, r3
    22f0:	9b0e      	ldr	r3, [sp, #56]	; 0x38
    22f2:	2b00      	cmp	r3, #0
    22f4:	dd17      	ble.n	2326 <CONFIG_MAIN_STACK_SIZE+0x386>
    22f6:	461a      	mov	r2, r3
    22f8:	4650      	mov	r0, sl
    22fa:	9904      	ldr	r1, [sp, #16]
    22fc:	f00e fce0 	bl	10cc0 <__pow5mult>
    2300:	9004      	str	r0, [sp, #16]
    2302:	2800      	cmp	r0, #0
    2304:	f43f aeaf 	beq.w	2066 <CONFIG_MAIN_STACK_SIZE+0xc6>
    2308:	4601      	mov	r1, r0
    230a:	9a1a      	ldr	r2, [sp, #104]	; 0x68
    230c:	4650      	mov	r0, sl
    230e:	f00e fc2f 	bl	10b70 <__multiply>
    2312:	9009      	str	r0, [sp, #36]	; 0x24
    2314:	2800      	cmp	r0, #0
    2316:	f43f aea6 	beq.w	2066 <CONFIG_MAIN_STACK_SIZE+0xc6>
    231a:	4650      	mov	r0, sl
    231c:	991a      	ldr	r1, [sp, #104]	; 0x68
    231e:	f00e fb5f 	bl	109e0 <_Bfree>
    2322:	9b09      	ldr	r3, [sp, #36]	; 0x24
    2324:	931a      	str	r3, [sp, #104]	; 0x68
    2326:	2f00      	cmp	r7, #0
    2328:	f300 808e 	bgt.w	2448 <CONFIG_MAIN_STACK_SIZE+0x4a8>
    232c:	9b07      	ldr	r3, [sp, #28]
    232e:	2b00      	cmp	r3, #0
    2330:	dd08      	ble.n	2344 <CONFIG_MAIN_STACK_SIZE+0x3a4>
    2332:	4650      	mov	r0, sl
    2334:	9a14      	ldr	r2, [sp, #80]	; 0x50
    2336:	9906      	ldr	r1, [sp, #24]
    2338:	f00e fcc2 	bl	10cc0 <__pow5mult>
    233c:	9006      	str	r0, [sp, #24]
    233e:	2800      	cmp	r0, #0
    2340:	f43f ae91 	beq.w	2066 <CONFIG_MAIN_STACK_SIZE+0xc6>
    2344:	2c00      	cmp	r4, #0
    2346:	dd08      	ble.n	235a <CONFIG_MAIN_STACK_SIZE+0x3ba>
    2348:	4622      	mov	r2, r4
    234a:	4650      	mov	r0, sl
    234c:	9906      	ldr	r1, [sp, #24]
    234e:	f00e fd11 	bl	10d74 <__lshift>
    2352:	9006      	str	r0, [sp, #24]
    2354:	2800      	cmp	r0, #0
    2356:	f43f ae86 	beq.w	2066 <CONFIG_MAIN_STACK_SIZE+0xc6>
    235a:	2e00      	cmp	r6, #0
    235c:	dd08      	ble.n	2370 <CONFIG_MAIN_STACK_SIZE+0x3d0>
    235e:	4632      	mov	r2, r6
    2360:	4650      	mov	r0, sl
    2362:	9904      	ldr	r1, [sp, #16]
    2364:	f00e fd06 	bl	10d74 <__lshift>
    2368:	9004      	str	r0, [sp, #16]
    236a:	2800      	cmp	r0, #0
    236c:	f43f ae7b 	beq.w	2066 <CONFIG_MAIN_STACK_SIZE+0xc6>
    2370:	4650      	mov	r0, sl
    2372:	9a06      	ldr	r2, [sp, #24]
    2374:	991a      	ldr	r1, [sp, #104]	; 0x68
    2376:	f00e fd6d 	bl	10e54 <__mdiff>
    237a:	4683      	mov	fp, r0
    237c:	2800      	cmp	r0, #0
    237e:	f43f ae72 	beq.w	2066 <CONFIG_MAIN_STACK_SIZE+0xc6>
    2382:	2400      	movs	r4, #0
    2384:	68c3      	ldr	r3, [r0, #12]
    2386:	9904      	ldr	r1, [sp, #16]
    2388:	60c4      	str	r4, [r0, #12]
    238a:	930b      	str	r3, [sp, #44]	; 0x2c
    238c:	f014 ffb7 	bl	172fe <__mcmp>
    2390:	42a0      	cmp	r0, r4
    2392:	da6b      	bge.n	246c <CONFIG_MAIN_STACK_SIZE+0x4cc>
    2394:	9b0b      	ldr	r3, [sp, #44]	; 0x2c
    2396:	ea53 0308 	orrs.w	r3, r3, r8
    239a:	f040 8091 	bne.w	24c0 <CONFIG_MAIN_STACK_SIZE+0x520>
    239e:	f3c9 0313 	ubfx	r3, r9, #0, #20
    23a2:	2b00      	cmp	r3, #0
    23a4:	f040 808c 	bne.w	24c0 <CONFIG_MAIN_STACK_SIZE+0x520>
    23a8:	f029 4300 	bic.w	r3, r9, #2147483648	; 0x80000000
    23ac:	0d1b      	lsrs	r3, r3, #20
    23ae:	051b      	lsls	r3, r3, #20
    23b0:	f1b3 6fd6 	cmp.w	r3, #112197632	; 0x6b00000
    23b4:	f240 8084 	bls.w	24c0 <CONFIG_MAIN_STACK_SIZE+0x520>
    23b8:	f8db 3014 	ldr.w	r3, [fp, #20]
    23bc:	b91b      	cbnz	r3, 23c6 <CONFIG_MAIN_STACK_SIZE+0x426>
    23be:	f8db 3010 	ldr.w	r3, [fp, #16]
    23c2:	2b01      	cmp	r3, #1
    23c4:	dd7c      	ble.n	24c0 <CONFIG_MAIN_STACK_SIZE+0x520>
    23c6:	4659      	mov	r1, fp
    23c8:	2201      	movs	r2, #1
    23ca:	4650      	mov	r0, sl
    23cc:	f00e fcd2 	bl	10d74 <__lshift>
    23d0:	9904      	ldr	r1, [sp, #16]
    23d2:	4683      	mov	fp, r0
    23d4:	f014 ff93 	bl	172fe <__mcmp>
    23d8:	2800      	cmp	r0, #0
    23da:	dd71      	ble.n	24c0 <CONFIG_MAIN_STACK_SIZE+0x520>
    23dc:	9905      	ldr	r1, [sp, #20]
    23de:	464b      	mov	r3, r9
    23e0:	4a20      	ldr	r2, [pc, #128]	; (2464 <CONFIG_MAIN_STACK_SIZE+0x4c4>)
    23e2:	2900      	cmp	r1, #0
    23e4:	f000 808c 	beq.w	2500 <CONFIG_MAIN_STACK_SIZE+0x560>
    23e8:	ea02 0109 	and.w	r1, r2, r9
    23ec:	f1b1 6fd6 	cmp.w	r1, #112197632	; 0x6b00000
    23f0:	f300 8086 	bgt.w	2500 <CONFIG_MAIN_STACK_SIZE+0x560>
    23f4:	f1b1 7f5c 	cmp.w	r1, #57671680	; 0x3700000
    23f8:	f77f aeaa 	ble.w	2150 <CONFIG_MAIN_STACK_SIZE+0x1b0>
    23fc:	4640      	mov	r0, r8
    23fe:	4649      	mov	r1, r9
    2400:	4b19      	ldr	r3, [pc, #100]	; (2468 <CONFIG_MAIN_STACK_SIZE+0x4c8>)
    2402:	2200      	movs	r2, #0
    2404:	f7fe f830 	bl	468 <__aeabi_dmul>
    2408:	460b      	mov	r3, r1
    240a:	4303      	orrs	r3, r0
    240c:	bf08      	it	eq
    240e:	2322      	moveq	r3, #34	; 0x22
    2410:	4680      	mov	r8, r0
    2412:	4689      	mov	r9, r1
    2414:	bf08      	it	eq
    2416:	f8ca 3000 	streq.w	r3, [sl]
    241a:	e62f      	b.n	207c <CONFIG_MAIN_STACK_SIZE+0xdc>
    241c:	f04f 32ff 	mov.w	r2, #4294967295	; 0xffffffff
    2420:	fa02 f303 	lsl.w	r3, r2, r3
    2424:	ea03 0808 	and.w	r8, r3, r8
    2428:	e6e0      	b.n	21ec <CONFIG_MAIN_STACK_SIZE+0x24c>
    242a:	f1c5 457f 	rsb	r5, r5, #4278190080	; 0xff000000
    242e:	f505 057f 	add.w	r5, r5, #16711680	; 0xff0000
    2432:	f505 457b 	add.w	r5, r5, #64256	; 0xfb00
    2436:	35e2      	adds	r5, #226	; 0xe2
    2438:	fa07 f505 	lsl.w	r5, r7, r5
    243c:	970f      	str	r7, [sp, #60]	; 0x3c
    243e:	e747      	b.n	22d0 <CONFIG_MAIN_STACK_SIZE+0x330>
    2440:	2301      	movs	r3, #1
    2442:	2500      	movs	r5, #0
    2444:	930f      	str	r3, [sp, #60]	; 0x3c
    2446:	e743      	b.n	22d0 <CONFIG_MAIN_STACK_SIZE+0x330>
    2448:	463a      	mov	r2, r7
    244a:	4650      	mov	r0, sl
    244c:	991a      	ldr	r1, [sp, #104]	; 0x68
    244e:	f00e fc91 	bl	10d74 <__lshift>
    2452:	901a      	str	r0, [sp, #104]	; 0x68
    2454:	2800      	cmp	r0, #0
    2456:	f47f af69 	bne.w	232c <CONFIG_MAIN_STACK_SIZE+0x38c>
    245a:	e604      	b.n	2066 <CONFIG_MAIN_STACK_SIZE+0xc6>
    245c:	00017880 	.word	0x00017880
    2460:	fffffc02 	.word	0xfffffc02
    2464:	7ff00000 	.word	0x7ff00000
    2468:	39500000 	.word	0x39500000
    246c:	f8cd 9024 	str.w	r9, [sp, #36]	; 0x24
    2470:	d165      	bne.n	253e <CONFIG_MAIN_STACK_SIZE+0x59e>
    2472:	9a0b      	ldr	r2, [sp, #44]	; 0x2c
    2474:	f3c9 0313 	ubfx	r3, r9, #0, #20
    2478:	b35a      	cbz	r2, 24d2 <CONFIG_MAIN_STACK_SIZE+0x532>
    247a:	4a99      	ldr	r2, [pc, #612]	; (26e0 <CONFIG_MAIN_STACK_SIZE+0x740>)
    247c:	4293      	cmp	r3, r2
    247e:	d12b      	bne.n	24d8 <CONFIG_MAIN_STACK_SIZE+0x538>
    2480:	9b05      	ldr	r3, [sp, #20]
    2482:	4641      	mov	r1, r8
    2484:	b303      	cbz	r3, 24c8 <CONFIG_MAIN_STACK_SIZE+0x528>
    2486:	464a      	mov	r2, r9
    2488:	4b96      	ldr	r3, [pc, #600]	; (26e4 <CONFIG_MAIN_STACK_SIZE+0x744>)
    248a:	4013      	ands	r3, r2
    248c:	f1b3 6fd4 	cmp.w	r3, #111149056	; 0x6a00000
    2490:	f04f 32ff 	mov.w	r2, #4294967295	; 0xffffffff
    2494:	d81b      	bhi.n	24ce <CONFIG_MAIN_STACK_SIZE+0x52e>
    2496:	0d1b      	lsrs	r3, r3, #20
    2498:	f1c3 036b 	rsb	r3, r3, #107	; 0x6b
    249c:	fa02 f303 	lsl.w	r3, r2, r3
    24a0:	4299      	cmp	r1, r3
    24a2:	d119      	bne.n	24d8 <CONFIG_MAIN_STACK_SIZE+0x538>
    24a4:	4b90      	ldr	r3, [pc, #576]	; (26e8 <CONFIG_MAIN_STACK_SIZE+0x748>)
    24a6:	9a09      	ldr	r2, [sp, #36]	; 0x24
    24a8:	429a      	cmp	r2, r3
    24aa:	d102      	bne.n	24b2 <CONFIG_MAIN_STACK_SIZE+0x512>
    24ac:	3101      	adds	r1, #1
    24ae:	f43f adda 	beq.w	2066 <CONFIG_MAIN_STACK_SIZE+0xc6>
    24b2:	f04f 0800 	mov.w	r8, #0
    24b6:	4b8b      	ldr	r3, [pc, #556]	; (26e4 <CONFIG_MAIN_STACK_SIZE+0x744>)
    24b8:	9a09      	ldr	r2, [sp, #36]	; 0x24
    24ba:	401a      	ands	r2, r3
    24bc:	f502 1980 	add.w	r9, r2, #1048576	; 0x100000
    24c0:	9b05      	ldr	r3, [sp, #20]
    24c2:	2b00      	cmp	r3, #0
    24c4:	d19a      	bne.n	23fc <CONFIG_MAIN_STACK_SIZE+0x45c>
    24c6:	e5d9      	b.n	207c <CONFIG_MAIN_STACK_SIZE+0xdc>
    24c8:	f04f 33ff 	mov.w	r3, #4294967295	; 0xffffffff
    24cc:	e7e8      	b.n	24a0 <CONFIG_MAIN_STACK_SIZE+0x500>
    24ce:	4613      	mov	r3, r2
    24d0:	e7e6      	b.n	24a0 <CONFIG_MAIN_STACK_SIZE+0x500>
    24d2:	ea53 0308 	orrs.w	r3, r3, r8
    24d6:	d081      	beq.n	23dc <CONFIG_MAIN_STACK_SIZE+0x43c>
    24d8:	b1e5      	cbz	r5, 2514 <CONFIG_MAIN_STACK_SIZE+0x574>
    24da:	9b09      	ldr	r3, [sp, #36]	; 0x24
    24dc:	421d      	tst	r5, r3
    24de:	d0ef      	beq.n	24c0 <CONFIG_MAIN_STACK_SIZE+0x520>
    24e0:	9b0b      	ldr	r3, [sp, #44]	; 0x2c
    24e2:	4640      	mov	r0, r8
    24e4:	4649      	mov	r1, r9
    24e6:	9a05      	ldr	r2, [sp, #20]
    24e8:	b1c3      	cbz	r3, 251c <CONFIG_MAIN_STACK_SIZE+0x57c>
    24ea:	f014 fcbd 	bl	16e68 <sulp>
    24ee:	4602      	mov	r2, r0
    24f0:	460b      	mov	r3, r1
    24f2:	e9dd 010c 	ldrd	r0, r1, [sp, #48]	; 0x30
    24f6:	f7fd fe01 	bl	fc <__adddf3>
    24fa:	4680      	mov	r8, r0
    24fc:	4689      	mov	r9, r1
    24fe:	e7df      	b.n	24c0 <CONFIG_MAIN_STACK_SIZE+0x520>
    2500:	4013      	ands	r3, r2
    2502:	f5a3 1380 	sub.w	r3, r3, #1048576	; 0x100000
    2506:	ea6f 5913 	mvn.w	r9, r3, lsr #20
    250a:	f04f 38ff 	mov.w	r8, #4294967295	; 0xffffffff
    250e:	ea6f 5909 	mvn.w	r9, r9, lsl #20
    2512:	e7d5      	b.n	24c0 <CONFIG_MAIN_STACK_SIZE+0x520>
    2514:	9b0f      	ldr	r3, [sp, #60]	; 0x3c
    2516:	ea13 0f08 	tst.w	r3, r8
    251a:	e7e0      	b.n	24de <CONFIG_MAIN_STACK_SIZE+0x53e>
    251c:	f014 fca4 	bl	16e68 <sulp>
    2520:	4602      	mov	r2, r0
    2522:	460b      	mov	r3, r1
    2524:	e9dd 010c 	ldrd	r0, r1, [sp, #48]	; 0x30
    2528:	f7fd fde6 	bl	f8 <__aeabi_dsub>
    252c:	2200      	movs	r2, #0
    252e:	2300      	movs	r3, #0
    2530:	4680      	mov	r8, r0
    2532:	4689      	mov	r9, r1
    2534:	f7fe fa00 	bl	938 <__aeabi_dcmpeq>
    2538:	2800      	cmp	r0, #0
    253a:	d0c1      	beq.n	24c0 <CONFIG_MAIN_STACK_SIZE+0x520>
    253c:	e608      	b.n	2150 <CONFIG_MAIN_STACK_SIZE+0x1b0>
    253e:	4658      	mov	r0, fp
    2540:	9904      	ldr	r1, [sp, #16]
    2542:	f014 fef7 	bl	17334 <__ratio>
    2546:	2200      	movs	r2, #0
    2548:	f04f 4380 	mov.w	r3, #1073741824	; 0x40000000
    254c:	4606      	mov	r6, r0
    254e:	460f      	mov	r7, r1
    2550:	f7fe fa06 	bl	960 <__aeabi_dcmple>
    2554:	2800      	cmp	r0, #0
    2556:	d070      	beq.n	263a <CONFIG_MAIN_STACK_SIZE+0x69a>
    2558:	9b0b      	ldr	r3, [sp, #44]	; 0x2c
    255a:	2b00      	cmp	r3, #0
    255c:	d042      	beq.n	25e4 <CONFIG_MAIN_STACK_SIZE+0x644>
    255e:	2600      	movs	r6, #0
    2560:	4f62      	ldr	r7, [pc, #392]	; (26ec <CONFIG_MAIN_STACK_SIZE+0x74c>)
    2562:	4d62      	ldr	r5, [pc, #392]	; (26ec <CONFIG_MAIN_STACK_SIZE+0x74c>)
    2564:	9b09      	ldr	r3, [sp, #36]	; 0x24
    2566:	f023 4300 	bic.w	r3, r3, #2147483648	; 0x80000000
    256a:	0d1b      	lsrs	r3, r3, #20
    256c:	051b      	lsls	r3, r3, #20
    256e:	930f      	str	r3, [sp, #60]	; 0x3c
    2570:	9a0f      	ldr	r2, [sp, #60]	; 0x3c
    2572:	4b5f      	ldr	r3, [pc, #380]	; (26f0 <CONFIG_MAIN_STACK_SIZE+0x750>)
    2574:	429a      	cmp	r2, r3
    2576:	f040 80c3 	bne.w	2700 <CONFIG_MAIN_STACK_SIZE+0x760>
    257a:	9b09      	ldr	r3, [sp, #36]	; 0x24
    257c:	4640      	mov	r0, r8
    257e:	f1a3 7954 	sub.w	r9, r3, #55574528	; 0x3500000
    2582:	4649      	mov	r1, r9
    2584:	f00e fcf2 	bl	10f6c <__ulp>
    2588:	4602      	mov	r2, r0
    258a:	460b      	mov	r3, r1
    258c:	4630      	mov	r0, r6
    258e:	4639      	mov	r1, r7
    2590:	f7fd ff6a 	bl	468 <__aeabi_dmul>
    2594:	4642      	mov	r2, r8
    2596:	464b      	mov	r3, r9
    2598:	f7fd fdb0 	bl	fc <__adddf3>
    259c:	460b      	mov	r3, r1
    259e:	4951      	ldr	r1, [pc, #324]	; (26e4 <CONFIG_MAIN_STACK_SIZE+0x744>)
    25a0:	4a54      	ldr	r2, [pc, #336]	; (26f4 <CONFIG_MAIN_STACK_SIZE+0x754>)
    25a2:	4019      	ands	r1, r3
    25a4:	4291      	cmp	r1, r2
    25a6:	4680      	mov	r8, r0
    25a8:	d95d      	bls.n	2666 <CONFIG_MAIN_STACK_SIZE+0x6c6>
    25aa:	9a0d      	ldr	r2, [sp, #52]	; 0x34
    25ac:	4b4e      	ldr	r3, [pc, #312]	; (26e8 <CONFIG_MAIN_STACK_SIZE+0x748>)
    25ae:	429a      	cmp	r2, r3
    25b0:	d103      	bne.n	25ba <CONFIG_MAIN_STACK_SIZE+0x61a>
    25b2:	9b0c      	ldr	r3, [sp, #48]	; 0x30
    25b4:	3301      	adds	r3, #1
    25b6:	f43f ad56 	beq.w	2066 <CONFIG_MAIN_STACK_SIZE+0xc6>
    25ba:	f04f 38ff 	mov.w	r8, #4294967295	; 0xffffffff
    25be:	f8df 9128 	ldr.w	r9, [pc, #296]	; 26e8 <CONFIG_MAIN_STACK_SIZE+0x748>
    25c2:	4650      	mov	r0, sl
    25c4:	991a      	ldr	r1, [sp, #104]	; 0x68
    25c6:	f00e fa0b 	bl	109e0 <_Bfree>
    25ca:	4650      	mov	r0, sl
    25cc:	9906      	ldr	r1, [sp, #24]
    25ce:	f00e fa07 	bl	109e0 <_Bfree>
    25d2:	4650      	mov	r0, sl
    25d4:	9904      	ldr	r1, [sp, #16]
    25d6:	f00e fa03 	bl	109e0 <_Bfree>
    25da:	4659      	mov	r1, fp
    25dc:	4650      	mov	r0, sl
    25de:	f00e f9ff 	bl	109e0 <_Bfree>
    25e2:	e627      	b.n	2234 <CONFIG_MAIN_STACK_SIZE+0x294>
    25e4:	f1b8 0f00 	cmp.w	r8, #0
    25e8:	d119      	bne.n	261e <CONFIG_MAIN_STACK_SIZE+0x67e>
    25ea:	9b09      	ldr	r3, [sp, #36]	; 0x24
    25ec:	f3c3 0313 	ubfx	r3, r3, #0, #20
    25f0:	b9e3      	cbnz	r3, 262c <CONFIG_MAIN_STACK_SIZE+0x68c>
    25f2:	2200      	movs	r2, #0
    25f4:	4630      	mov	r0, r6
    25f6:	4639      	mov	r1, r7
    25f8:	4b3c      	ldr	r3, [pc, #240]	; (26ec <CONFIG_MAIN_STACK_SIZE+0x74c>)
    25fa:	f7fe f9a7 	bl	94c <__aeabi_dcmplt>
    25fe:	b9c8      	cbnz	r0, 2634 <CONFIG_MAIN_STACK_SIZE+0x694>
    2600:	2200      	movs	r2, #0
    2602:	4630      	mov	r0, r6
    2604:	4639      	mov	r1, r7
    2606:	4b3c      	ldr	r3, [pc, #240]	; (26f8 <CONFIG_MAIN_STACK_SIZE+0x758>)
    2608:	f7fd ff2e 	bl	468 <__aeabi_dmul>
    260c:	4604      	mov	r4, r0
    260e:	460d      	mov	r5, r1
    2610:	f105 4300 	add.w	r3, r5, #2147483648	; 0x80000000
    2614:	9416      	str	r4, [sp, #88]	; 0x58
    2616:	9317      	str	r3, [sp, #92]	; 0x5c
    2618:	e9dd 6716 	ldrd	r6, r7, [sp, #88]	; 0x58
    261c:	e7a2      	b.n	2564 <CONFIG_MAIN_STACK_SIZE+0x5c4>
    261e:	f1b8 0f01 	cmp.w	r8, #1
    2622:	d103      	bne.n	262c <CONFIG_MAIN_STACK_SIZE+0x68c>
    2624:	9b09      	ldr	r3, [sp, #36]	; 0x24
    2626:	2b00      	cmp	r3, #0
    2628:	f43f ad92 	beq.w	2150 <CONFIG_MAIN_STACK_SIZE+0x1b0>
    262c:	2600      	movs	r6, #0
    262e:	2400      	movs	r4, #0
    2630:	4f32      	ldr	r7, [pc, #200]	; (26fc <CONFIG_MAIN_STACK_SIZE+0x75c>)
    2632:	e796      	b.n	2562 <CONFIG_MAIN_STACK_SIZE+0x5c2>
    2634:	9c0b      	ldr	r4, [sp, #44]	; 0x2c
    2636:	4d30      	ldr	r5, [pc, #192]	; (26f8 <CONFIG_MAIN_STACK_SIZE+0x758>)
    2638:	e7ea      	b.n	2610 <CONFIG_MAIN_STACK_SIZE+0x670>
    263a:	4b2f      	ldr	r3, [pc, #188]	; (26f8 <CONFIG_MAIN_STACK_SIZE+0x758>)
    263c:	2200      	movs	r2, #0
    263e:	4630      	mov	r0, r6
    2640:	4639      	mov	r1, r7
    2642:	f7fd ff11 	bl	468 <__aeabi_dmul>
    2646:	9b0b      	ldr	r3, [sp, #44]	; 0x2c
    2648:	4604      	mov	r4, r0
    264a:	460d      	mov	r5, r1
    264c:	b933      	cbnz	r3, 265c <CONFIG_MAIN_STACK_SIZE+0x6bc>
    264e:	f101 4300 	add.w	r3, r1, #2147483648	; 0x80000000
    2652:	9010      	str	r0, [sp, #64]	; 0x40
    2654:	9311      	str	r3, [sp, #68]	; 0x44
    2656:	e9dd 6710 	ldrd	r6, r7, [sp, #64]	; 0x40
    265a:	e783      	b.n	2564 <CONFIG_MAIN_STACK_SIZE+0x5c4>
    265c:	4602      	mov	r2, r0
    265e:	460b      	mov	r3, r1
    2660:	e9cd 2310 	strd	r2, r3, [sp, #64]	; 0x40
    2664:	e7f7      	b.n	2656 <CONFIG_MAIN_STACK_SIZE+0x6b6>
    2666:	f103 7954 	add.w	r9, r3, #55574528	; 0x3500000
    266a:	9b05      	ldr	r3, [sp, #20]
    266c:	2b00      	cmp	r3, #0
    266e:	d1a8      	bne.n	25c2 <CONFIG_MAIN_STACK_SIZE+0x622>
    2670:	f029 4300 	bic.w	r3, r9, #2147483648	; 0x80000000
    2674:	9a0f      	ldr	r2, [sp, #60]	; 0x3c
    2676:	0d1b      	lsrs	r3, r3, #20
    2678:	051b      	lsls	r3, r3, #20
    267a:	429a      	cmp	r2, r3
    267c:	d1a1      	bne.n	25c2 <CONFIG_MAIN_STACK_SIZE+0x622>
    267e:	4620      	mov	r0, r4
    2680:	4629      	mov	r1, r5
    2682:	f7fe fa7f 	bl	b84 <__aeabi_d2lz>
    2686:	f7fd fec1 	bl	40c <__aeabi_l2d>
    268a:	4602      	mov	r2, r0
    268c:	460b      	mov	r3, r1
    268e:	4620      	mov	r0, r4
    2690:	4629      	mov	r1, r5
    2692:	f7fd fd31 	bl	f8 <__aeabi_dsub>
    2696:	9a0b      	ldr	r2, [sp, #44]	; 0x2c
    2698:	f3c9 0313 	ubfx	r3, r9, #0, #20
    269c:	ea43 0308 	orr.w	r3, r3, r8
    26a0:	4313      	orrs	r3, r2
    26a2:	4604      	mov	r4, r0
    26a4:	460d      	mov	r5, r1
    26a6:	d066      	beq.n	2776 <CONFIG_MAIN_STACK_SIZE+0x7d6>
    26a8:	a309      	add	r3, pc, #36	; (adr r3, 26d0 <CONFIG_MAIN_STACK_SIZE+0x730>)
    26aa:	e9d3 2300 	ldrd	r2, r3, [r3]
    26ae:	f7fe f94d 	bl	94c <__aeabi_dcmplt>
    26b2:	2800      	cmp	r0, #0
    26b4:	f47f ace2 	bne.w	207c <CONFIG_MAIN_STACK_SIZE+0xdc>
    26b8:	a307      	add	r3, pc, #28	; (adr r3, 26d8 <CONFIG_MAIN_STACK_SIZE+0x738>)
    26ba:	e9d3 2300 	ldrd	r2, r3, [r3]
    26be:	4620      	mov	r0, r4
    26c0:	4629      	mov	r1, r5
    26c2:	f7fe f961 	bl	988 <__aeabi_dcmpgt>
    26c6:	2800      	cmp	r0, #0
    26c8:	f43f af7b 	beq.w	25c2 <CONFIG_MAIN_STACK_SIZE+0x622>
    26cc:	e4d6      	b.n	207c <CONFIG_MAIN_STACK_SIZE+0xdc>
    26ce:	bf00      	nop
    26d0:	94a03595 	.word	0x94a03595
    26d4:	3fdfffff 	.word	0x3fdfffff
    26d8:	35afe535 	.word	0x35afe535
    26dc:	3fe00000 	.word	0x3fe00000
    26e0:	000fffff 	.word	0x000fffff
    26e4:	7ff00000 	.word	0x7ff00000
    26e8:	7fefffff 	.word	0x7fefffff
    26ec:	3ff00000 	.word	0x3ff00000
    26f0:	7fe00000 	.word	0x7fe00000
    26f4:	7c9fffff 	.word	0x7c9fffff
    26f8:	3fe00000 	.word	0x3fe00000
    26fc:	bff00000 	.word	0xbff00000
    2700:	9b05      	ldr	r3, [sp, #20]
    2702:	b313      	cbz	r3, 274a <CONFIG_MAIN_STACK_SIZE+0x7aa>
    2704:	9b0f      	ldr	r3, [sp, #60]	; 0x3c
    2706:	f1b3 6fd4 	cmp.w	r3, #111149056	; 0x6a00000
    270a:	d81e      	bhi.n	274a <CONFIG_MAIN_STACK_SIZE+0x7aa>
    270c:	a326      	add	r3, pc, #152	; (adr r3, 27a8 <CONFIG_MAIN_STACK_SIZE+0x808>)
    270e:	e9d3 2300 	ldrd	r2, r3, [r3]
    2712:	4620      	mov	r0, r4
    2714:	4629      	mov	r1, r5
    2716:	f7fe f923 	bl	960 <__aeabi_dcmple>
    271a:	b190      	cbz	r0, 2742 <CONFIG_MAIN_STACK_SIZE+0x7a2>
    271c:	4629      	mov	r1, r5
    271e:	4620      	mov	r0, r4
    2720:	f7fe f9c4 	bl	aac <__aeabi_d2uiz>
    2724:	2801      	cmp	r0, #1
    2726:	bf38      	it	cc
    2728:	2001      	movcc	r0, #1
    272a:	f7fd fe23 	bl	374 <__aeabi_ui2d>
    272e:	9b0b      	ldr	r3, [sp, #44]	; 0x2c
    2730:	4604      	mov	r4, r0
    2732:	460d      	mov	r5, r1
    2734:	b9d3      	cbnz	r3, 276c <CONFIG_MAIN_STACK_SIZE+0x7cc>
    2736:	f101 4300 	add.w	r3, r1, #2147483648	; 0x80000000
    273a:	9012      	str	r0, [sp, #72]	; 0x48
    273c:	9313      	str	r3, [sp, #76]	; 0x4c
    273e:	e9dd 6712 	ldrd	r6, r7, [sp, #72]	; 0x48
    2742:	9a0f      	ldr	r2, [sp, #60]	; 0x3c
    2744:	f107 63d6 	add.w	r3, r7, #112197632	; 0x6b00000
    2748:	1a9f      	subs	r7, r3, r2
    274a:	e9dd 010c 	ldrd	r0, r1, [sp, #48]	; 0x30
    274e:	f00e fc0d 	bl	10f6c <__ulp>
    2752:	4602      	mov	r2, r0
    2754:	460b      	mov	r3, r1
    2756:	4630      	mov	r0, r6
    2758:	4639      	mov	r1, r7
    275a:	f7fd fe85 	bl	468 <__aeabi_dmul>
    275e:	e9dd 230c 	ldrd	r2, r3, [sp, #48]	; 0x30
    2762:	f7fd fccb 	bl	fc <__adddf3>
    2766:	4680      	mov	r8, r0
    2768:	4689      	mov	r9, r1
    276a:	e77e      	b.n	266a <CONFIG_MAIN_STACK_SIZE+0x6ca>
    276c:	4602      	mov	r2, r0
    276e:	460b      	mov	r3, r1
    2770:	e9cd 2312 	strd	r2, r3, [sp, #72]	; 0x48
    2774:	e7e3      	b.n	273e <CONFIG_MAIN_STACK_SIZE+0x79e>
    2776:	a30e      	add	r3, pc, #56	; (adr r3, 27b0 <CONFIG_MAIN_STACK_SIZE+0x810>)
    2778:	e9d3 2300 	ldrd	r2, r3, [r3]
    277c:	f7fe f8e6 	bl	94c <__aeabi_dcmplt>
    2780:	e7a1      	b.n	26c6 <CONFIG_MAIN_STACK_SIZE+0x726>
    2782:	2300      	movs	r3, #0
    2784:	930a      	str	r3, [sp, #40]	; 0x28
    2786:	9b19      	ldr	r3, [sp, #100]	; 0x64
    2788:	9a15      	ldr	r2, [sp, #84]	; 0x54
    278a:	6013      	str	r3, [r2, #0]
    278c:	f7ff ba71 	b.w	1c72 <_strtod_l+0x8a>
    2790:	2a65      	cmp	r2, #101	; 0x65
    2792:	f43f ab63 	beq.w	1e5c <_strtod_l+0x274>
    2796:	2a45      	cmp	r2, #69	; 0x45
    2798:	f43f ab60 	beq.w	1e5c <_strtod_l+0x274>
    279c:	2301      	movs	r3, #1
    279e:	f7ff bb95 	b.w	1ecc <_strtod_l+0x2e4>
    27a2:	bf00      	nop
    27a4:	f3af 8000 	nop.w
    27a8:	ffc00000 	.word	0xffc00000
    27ac:	41dfffff 	.word	0x41dfffff
    27b0:	94a03595 	.word	0x94a03595
    27b4:	3fcfffff 	.word	0x3fcfffff

000027b8 <_dtoa_r>:
    27b8:	e92d 4ff0 	stmdb	sp!, {r4, r5, r6, r7, r8, r9, sl, fp, lr}
    27bc:	4616      	mov	r6, r2
    27be:	461f      	mov	r7, r3
    27c0:	6a44      	ldr	r4, [r0, #36]	; 0x24
    27c2:	b099      	sub	sp, #100	; 0x64
    27c4:	4605      	mov	r5, r0
    27c6:	e9cd 6704 	strd	r6, r7, [sp, #16]
    27ca:	f8dd 8094 	ldr.w	r8, [sp, #148]	; 0x94
    27ce:	b974      	cbnz	r4, 27ee <_dtoa_r+0x36>
    27d0:	2010      	movs	r0, #16
    27d2:	f00a ffe1 	bl	d798 <malloc>
    27d6:	4602      	mov	r2, r0
    27d8:	6268      	str	r0, [r5, #36]	; 0x24
    27da:	b920      	cbnz	r0, 27e6 <_dtoa_r+0x2e>
    27dc:	21ea      	movs	r1, #234	; 0xea
    27de:	4ba8      	ldr	r3, [pc, #672]	; (2a80 <_dtoa_r+0x2c8>)
    27e0:	48a8      	ldr	r0, [pc, #672]	; (2a84 <_dtoa_r+0x2cc>)
    27e2:	f00d fca7 	bl	10134 <__assert_func>
    27e6:	e9c0 4401 	strd	r4, r4, [r0, #4]
    27ea:	6004      	str	r4, [r0, #0]
    27ec:	60c4      	str	r4, [r0, #12]
    27ee:	6a6b      	ldr	r3, [r5, #36]	; 0x24
    27f0:	6819      	ldr	r1, [r3, #0]
    27f2:	b151      	cbz	r1, 280a <_dtoa_r+0x52>
    27f4:	685a      	ldr	r2, [r3, #4]
    27f6:	2301      	movs	r3, #1
    27f8:	4093      	lsls	r3, r2
    27fa:	604a      	str	r2, [r1, #4]
    27fc:	608b      	str	r3, [r1, #8]
    27fe:	4628      	mov	r0, r5
    2800:	f00e f8ee 	bl	109e0 <_Bfree>
    2804:	2200      	movs	r2, #0
    2806:	6a6b      	ldr	r3, [r5, #36]	; 0x24
    2808:	601a      	str	r2, [r3, #0]
    280a:	1e3b      	subs	r3, r7, #0
    280c:	bfaf      	iteee	ge
    280e:	2300      	movge	r3, #0
    2810:	2201      	movlt	r2, #1
    2812:	f023 4300 	biclt.w	r3, r3, #2147483648	; 0x80000000
    2816:	9305      	strlt	r3, [sp, #20]
    2818:	bfa8      	it	ge
    281a:	f8c8 3000 	strge.w	r3, [r8]
    281e:	f8dd 9014 	ldr.w	r9, [sp, #20]
    2822:	4b99      	ldr	r3, [pc, #612]	; (2a88 <_dtoa_r+0x2d0>)
    2824:	bfb8      	it	lt
    2826:	f8c8 2000 	strlt.w	r2, [r8]
    282a:	ea33 0309 	bics.w	r3, r3, r9
    282e:	d119      	bne.n	2864 <_dtoa_r+0xac>
    2830:	f242 730f 	movw	r3, #9999	; 0x270f
    2834:	9a24      	ldr	r2, [sp, #144]	; 0x90
    2836:	6013      	str	r3, [r2, #0]
    2838:	f3c9 0313 	ubfx	r3, r9, #0, #20
    283c:	4333      	orrs	r3, r6
    283e:	f000 857f 	beq.w	3340 <_dtoa_r+0xb88>
    2842:	9b26      	ldr	r3, [sp, #152]	; 0x98
    2844:	b953      	cbnz	r3, 285c <_dtoa_r+0xa4>
    2846:	4b91      	ldr	r3, [pc, #580]	; (2a8c <_dtoa_r+0x2d4>)
    2848:	e022      	b.n	2890 <_dtoa_r+0xd8>
    284a:	4b91      	ldr	r3, [pc, #580]	; (2a90 <_dtoa_r+0x2d8>)
    284c:	9303      	str	r3, [sp, #12]
    284e:	3308      	adds	r3, #8
    2850:	9a26      	ldr	r2, [sp, #152]	; 0x98
    2852:	6013      	str	r3, [r2, #0]
    2854:	9803      	ldr	r0, [sp, #12]
    2856:	b019      	add	sp, #100	; 0x64
    2858:	e8bd 8ff0 	ldmia.w	sp!, {r4, r5, r6, r7, r8, r9, sl, fp, pc}
    285c:	4b8b      	ldr	r3, [pc, #556]	; (2a8c <_dtoa_r+0x2d4>)
    285e:	9303      	str	r3, [sp, #12]
    2860:	3303      	adds	r3, #3
    2862:	e7f5      	b.n	2850 <_dtoa_r+0x98>
    2864:	e9dd 3404 	ldrd	r3, r4, [sp, #16]
    2868:	e9cd 340c 	strd	r3, r4, [sp, #48]	; 0x30
    286c:	e9dd 010c 	ldrd	r0, r1, [sp, #48]	; 0x30
    2870:	2200      	movs	r2, #0
    2872:	2300      	movs	r3, #0
    2874:	f7fe f860 	bl	938 <__aeabi_dcmpeq>
    2878:	4680      	mov	r8, r0
    287a:	b158      	cbz	r0, 2894 <_dtoa_r+0xdc>
    287c:	2301      	movs	r3, #1
    287e:	9a24      	ldr	r2, [sp, #144]	; 0x90
    2880:	6013      	str	r3, [r2, #0]
    2882:	9b26      	ldr	r3, [sp, #152]	; 0x98
    2884:	2b00      	cmp	r3, #0
    2886:	f000 8558 	beq.w	333a <_dtoa_r+0xb82>
    288a:	4882      	ldr	r0, [pc, #520]	; (2a94 <_dtoa_r+0x2dc>)
    288c:	6018      	str	r0, [r3, #0]
    288e:	1e43      	subs	r3, r0, #1
    2890:	9303      	str	r3, [sp, #12]
    2892:	e7df      	b.n	2854 <_dtoa_r+0x9c>
    2894:	ab16      	add	r3, sp, #88	; 0x58
    2896:	9301      	str	r3, [sp, #4]
    2898:	ab17      	add	r3, sp, #92	; 0x5c
    289a:	9300      	str	r3, [sp, #0]
    289c:	4628      	mov	r0, r5
    289e:	e9dd 230c 	ldrd	r2, r3, [sp, #48]	; 0x30
    28a2:	f00e fbdd 	bl	11060 <__d2b>
    28a6:	f3c9 540a 	ubfx	r4, r9, #20, #11
    28aa:	4683      	mov	fp, r0
    28ac:	2c00      	cmp	r4, #0
    28ae:	d07f      	beq.n	29b0 <_dtoa_r+0x1f8>
    28b0:	e9dd 010c 	ldrd	r0, r1, [sp, #48]	; 0x30
    28b4:	9b0d      	ldr	r3, [sp, #52]	; 0x34
    28b6:	f2a4 34ff 	subw	r4, r4, #1023	; 0x3ff
    28ba:	f3c3 0313 	ubfx	r3, r3, #0, #20
    28be:	f043 517f 	orr.w	r1, r3, #1069547520	; 0x3fc00000
    28c2:	f441 1140 	orr.w	r1, r1, #3145728	; 0x300000
    28c6:	f8cd 804c 	str.w	r8, [sp, #76]	; 0x4c
    28ca:	2200      	movs	r2, #0
    28cc:	4b72      	ldr	r3, [pc, #456]	; (2a98 <_dtoa_r+0x2e0>)
    28ce:	f7fd fc13 	bl	f8 <__aeabi_dsub>
    28d2:	a365      	add	r3, pc, #404	; (adr r3, 2a68 <_dtoa_r+0x2b0>)
    28d4:	e9d3 2300 	ldrd	r2, r3, [r3]
    28d8:	f7fd fdc6 	bl	468 <__aeabi_dmul>
    28dc:	a364      	add	r3, pc, #400	; (adr r3, 2a70 <_dtoa_r+0x2b8>)
    28de:	e9d3 2300 	ldrd	r2, r3, [r3]
    28e2:	f7fd fc0b 	bl	fc <__adddf3>
    28e6:	4606      	mov	r6, r0
    28e8:	4620      	mov	r0, r4
    28ea:	460f      	mov	r7, r1
    28ec:	f7fd fd52 	bl	394 <__aeabi_i2d>
    28f0:	a361      	add	r3, pc, #388	; (adr r3, 2a78 <_dtoa_r+0x2c0>)
    28f2:	e9d3 2300 	ldrd	r2, r3, [r3]
    28f6:	f7fd fdb7 	bl	468 <__aeabi_dmul>
    28fa:	4602      	mov	r2, r0
    28fc:	460b      	mov	r3, r1
    28fe:	4630      	mov	r0, r6
    2900:	4639      	mov	r1, r7
    2902:	f7fd fbfb 	bl	fc <__adddf3>
    2906:	4606      	mov	r6, r0
    2908:	460f      	mov	r7, r1
    290a:	f7fe f913 	bl	b34 <__aeabi_d2iz>
    290e:	2200      	movs	r2, #0
    2910:	4682      	mov	sl, r0
    2912:	2300      	movs	r3, #0
    2914:	4630      	mov	r0, r6
    2916:	4639      	mov	r1, r7
    2918:	f7fe f818 	bl	94c <__aeabi_dcmplt>
    291c:	b148      	cbz	r0, 2932 <_dtoa_r+0x17a>
    291e:	4650      	mov	r0, sl
    2920:	f7fd fd38 	bl	394 <__aeabi_i2d>
    2924:	4632      	mov	r2, r6
    2926:	463b      	mov	r3, r7
    2928:	f7fe f806 	bl	938 <__aeabi_dcmpeq>
    292c:	b908      	cbnz	r0, 2932 <_dtoa_r+0x17a>
    292e:	f10a 3aff 	add.w	sl, sl, #4294967295	; 0xffffffff
    2932:	f1ba 0f16 	cmp.w	sl, #22
    2936:	d858      	bhi.n	29ea <_dtoa_r+0x232>
    2938:	e9dd 010c 	ldrd	r0, r1, [sp, #48]	; 0x30
    293c:	4b57      	ldr	r3, [pc, #348]	; (2a9c <_dtoa_r+0x2e4>)
    293e:	eb03 03ca 	add.w	r3, r3, sl, lsl #3
    2942:	e9d3 2300 	ldrd	r2, r3, [r3]
    2946:	f7fe f801 	bl	94c <__aeabi_dcmplt>
    294a:	2800      	cmp	r0, #0
    294c:	d04f      	beq.n	29ee <_dtoa_r+0x236>
    294e:	2300      	movs	r3, #0
    2950:	f10a 3aff 	add.w	sl, sl, #4294967295	; 0xffffffff
    2954:	930f      	str	r3, [sp, #60]	; 0x3c
    2956:	9b16      	ldr	r3, [sp, #88]	; 0x58
    2958:	1b1c      	subs	r4, r3, r4
    295a:	1e63      	subs	r3, r4, #1
    295c:	9309      	str	r3, [sp, #36]	; 0x24
    295e:	bf49      	itett	mi
    2960:	f1c4 0301 	rsbmi	r3, r4, #1
    2964:	2300      	movpl	r3, #0
    2966:	9306      	strmi	r3, [sp, #24]
    2968:	2300      	movmi	r3, #0
    296a:	bf54      	ite	pl
    296c:	9306      	strpl	r3, [sp, #24]
    296e:	9309      	strmi	r3, [sp, #36]	; 0x24
    2970:	f1ba 0f00 	cmp.w	sl, #0
    2974:	db3d      	blt.n	29f2 <_dtoa_r+0x23a>
    2976:	9b09      	ldr	r3, [sp, #36]	; 0x24
    2978:	f8cd a038 	str.w	sl, [sp, #56]	; 0x38
    297c:	4453      	add	r3, sl
    297e:	9309      	str	r3, [sp, #36]	; 0x24
    2980:	2300      	movs	r3, #0
    2982:	930a      	str	r3, [sp, #40]	; 0x28
    2984:	9b22      	ldr	r3, [sp, #136]	; 0x88
    2986:	2b09      	cmp	r3, #9
    2988:	f200 808c 	bhi.w	2aa4 <_dtoa_r+0x2ec>
    298c:	2b05      	cmp	r3, #5
    298e:	bfc4      	itt	gt
    2990:	3b04      	subgt	r3, #4
    2992:	9322      	strgt	r3, [sp, #136]	; 0x88
    2994:	9b22      	ldr	r3, [sp, #136]	; 0x88
    2996:	bfc8      	it	gt
    2998:	2400      	movgt	r4, #0
    299a:	f1a3 0302 	sub.w	r3, r3, #2
    299e:	bfd8      	it	le
    29a0:	2401      	movle	r4, #1
    29a2:	2b03      	cmp	r3, #3
    29a4:	f200 808a 	bhi.w	2abc <_dtoa_r+0x304>
    29a8:	e8df f003 	tbb	[pc, r3]
    29ac:	5b4d4f2d 	.word	0x5b4d4f2d
    29b0:	e9dd 4316 	ldrd	r4, r3, [sp, #88]	; 0x58
    29b4:	441c      	add	r4, r3
    29b6:	f204 4332 	addw	r3, r4, #1074	; 0x432
    29ba:	2b20      	cmp	r3, #32
    29bc:	bfc3      	ittte	gt
    29be:	f1c3 0340 	rsbgt	r3, r3, #64	; 0x40
    29c2:	f204 4012 	addwgt	r0, r4, #1042	; 0x412
    29c6:	fa09 f303 	lslgt.w	r3, r9, r3
    29ca:	f1c3 0320 	rsble	r3, r3, #32
    29ce:	bfc6      	itte	gt
    29d0:	fa26 f000 	lsrgt.w	r0, r6, r0
    29d4:	4318      	orrgt	r0, r3
    29d6:	fa06 f003 	lslle.w	r0, r6, r3
    29da:	f7fd fccb 	bl	374 <__aeabi_ui2d>
    29de:	2301      	movs	r3, #1
    29e0:	f1a1 71f8 	sub.w	r1, r1, #32505856	; 0x1f00000
    29e4:	3c01      	subs	r4, #1
    29e6:	9313      	str	r3, [sp, #76]	; 0x4c
    29e8:	e76f      	b.n	28ca <_dtoa_r+0x112>
    29ea:	2301      	movs	r3, #1
    29ec:	e7b2      	b.n	2954 <_dtoa_r+0x19c>
    29ee:	900f      	str	r0, [sp, #60]	; 0x3c
    29f0:	e7b1      	b.n	2956 <_dtoa_r+0x19e>
    29f2:	9b06      	ldr	r3, [sp, #24]
    29f4:	eba3 030a 	sub.w	r3, r3, sl
    29f8:	9306      	str	r3, [sp, #24]
    29fa:	f1ca 0300 	rsb	r3, sl, #0
    29fe:	930a      	str	r3, [sp, #40]	; 0x28
    2a00:	2300      	movs	r3, #0
    2a02:	930e      	str	r3, [sp, #56]	; 0x38
    2a04:	e7be      	b.n	2984 <_dtoa_r+0x1cc>
    2a06:	2300      	movs	r3, #0
    2a08:	930b      	str	r3, [sp, #44]	; 0x2c
    2a0a:	9b23      	ldr	r3, [sp, #140]	; 0x8c
    2a0c:	2b00      	cmp	r3, #0
    2a0e:	dc58      	bgt.n	2ac2 <_dtoa_r+0x30a>
    2a10:	f04f 0901 	mov.w	r9, #1
    2a14:	464b      	mov	r3, r9
    2a16:	f8cd 9020 	str.w	r9, [sp, #32]
    2a1a:	f8cd 908c 	str.w	r9, [sp, #140]	; 0x8c
    2a1e:	2200      	movs	r2, #0
    2a20:	6a68      	ldr	r0, [r5, #36]	; 0x24
    2a22:	6042      	str	r2, [r0, #4]
    2a24:	2204      	movs	r2, #4
    2a26:	f102 0614 	add.w	r6, r2, #20
    2a2a:	429e      	cmp	r6, r3
    2a2c:	6841      	ldr	r1, [r0, #4]
    2a2e:	d94e      	bls.n	2ace <_dtoa_r+0x316>
    2a30:	4628      	mov	r0, r5
    2a32:	f00d ff95 	bl	10960 <_Balloc>
    2a36:	9003      	str	r0, [sp, #12]
    2a38:	2800      	cmp	r0, #0
    2a3a:	d14c      	bne.n	2ad6 <_dtoa_r+0x31e>
    2a3c:	4602      	mov	r2, r0
    2a3e:	f44f 71d5 	mov.w	r1, #426	; 0x1aa
    2a42:	4b17      	ldr	r3, [pc, #92]	; (2aa0 <_dtoa_r+0x2e8>)
    2a44:	e6cc      	b.n	27e0 <_dtoa_r+0x28>
    2a46:	2301      	movs	r3, #1
    2a48:	e7de      	b.n	2a08 <_dtoa_r+0x250>
    2a4a:	2300      	movs	r3, #0
    2a4c:	930b      	str	r3, [sp, #44]	; 0x2c
    2a4e:	9b23      	ldr	r3, [sp, #140]	; 0x8c
    2a50:	eb0a 0903 	add.w	r9, sl, r3
    2a54:	f109 0301 	add.w	r3, r9, #1
    2a58:	2b01      	cmp	r3, #1
    2a5a:	9308      	str	r3, [sp, #32]
    2a5c:	bfb8      	it	lt
    2a5e:	2301      	movlt	r3, #1
    2a60:	e7dd      	b.n	2a1e <_dtoa_r+0x266>
    2a62:	2301      	movs	r3, #1
    2a64:	e7f2      	b.n	2a4c <_dtoa_r+0x294>
    2a66:	bf00      	nop
    2a68:	636f4361 	.word	0x636f4361
    2a6c:	3fd287a7 	.word	0x3fd287a7
    2a70:	8b60c8b3 	.word	0x8b60c8b3
    2a74:	3fc68a28 	.word	0x3fc68a28
    2a78:	509f79fb 	.word	0x509f79fb
    2a7c:	3fd34413 	.word	0x3fd34413
    2a80:	00018cab 	.word	0x00018cab
    2a84:	00018cc2 	.word	0x00018cc2
    2a88:	7ff00000 	.word	0x7ff00000
    2a8c:	000187c4 	.word	0x000187c4
    2a90:	00018ca2 	.word	0x00018ca2
    2a94:	00017d65 	.word	0x00017d65
    2a98:	3ff80000 	.word	0x3ff80000
    2a9c:	000178d0 	.word	0x000178d0
    2aa0:	00018d1e 	.word	0x00018d1e
    2aa4:	2401      	movs	r4, #1
    2aa6:	2300      	movs	r3, #0
    2aa8:	940b      	str	r4, [sp, #44]	; 0x2c
    2aaa:	9322      	str	r3, [sp, #136]	; 0x88
    2aac:	f04f 39ff 	mov.w	r9, #4294967295	; 0xffffffff
    2ab0:	2200      	movs	r2, #0
    2ab2:	2312      	movs	r3, #18
    2ab4:	f8cd 9020 	str.w	r9, [sp, #32]
    2ab8:	9223      	str	r2, [sp, #140]	; 0x8c
    2aba:	e7b0      	b.n	2a1e <_dtoa_r+0x266>
    2abc:	2301      	movs	r3, #1
    2abe:	930b      	str	r3, [sp, #44]	; 0x2c
    2ac0:	e7f4      	b.n	2aac <_dtoa_r+0x2f4>
    2ac2:	f8dd 908c 	ldr.w	r9, [sp, #140]	; 0x8c
    2ac6:	464b      	mov	r3, r9
    2ac8:	f8cd 9020 	str.w	r9, [sp, #32]
    2acc:	e7a7      	b.n	2a1e <_dtoa_r+0x266>
    2ace:	3101      	adds	r1, #1
    2ad0:	6041      	str	r1, [r0, #4]
    2ad2:	0052      	lsls	r2, r2, #1
    2ad4:	e7a7      	b.n	2a26 <_dtoa_r+0x26e>
    2ad6:	6a6b      	ldr	r3, [r5, #36]	; 0x24
    2ad8:	9a03      	ldr	r2, [sp, #12]
    2ada:	601a      	str	r2, [r3, #0]
    2adc:	9b08      	ldr	r3, [sp, #32]
    2ade:	2b0e      	cmp	r3, #14
    2ae0:	f200 80a8 	bhi.w	2c34 <_dtoa_r+0x47c>
    2ae4:	2c00      	cmp	r4, #0
    2ae6:	f000 80a5 	beq.w	2c34 <_dtoa_r+0x47c>
    2aea:	f1ba 0f00 	cmp.w	sl, #0
    2aee:	dd34      	ble.n	2b5a <_dtoa_r+0x3a2>
    2af0:	4a9a      	ldr	r2, [pc, #616]	; (2d5c <_dtoa_r+0x5a4>)
    2af2:	f00a 030f 	and.w	r3, sl, #15
    2af6:	eb02 03c3 	add.w	r3, r2, r3, lsl #3
    2afa:	f41a 7f80 	tst.w	sl, #256	; 0x100
    2afe:	e9d3 3400 	ldrd	r3, r4, [r3]
    2b02:	e9cd 3410 	strd	r3, r4, [sp, #64]	; 0x40
    2b06:	ea4f 142a 	mov.w	r4, sl, asr #4
    2b0a:	d016      	beq.n	2b3a <_dtoa_r+0x382>
    2b0c:	e9dd 010c 	ldrd	r0, r1, [sp, #48]	; 0x30
    2b10:	4b93      	ldr	r3, [pc, #588]	; (2d60 <_dtoa_r+0x5a8>)
    2b12:	2703      	movs	r7, #3
    2b14:	e9d3 2308 	ldrd	r2, r3, [r3, #32]
    2b18:	f7fd fdd0 	bl	6bc <__aeabi_ddiv>
    2b1c:	e9cd 0104 	strd	r0, r1, [sp, #16]
    2b20:	f004 040f 	and.w	r4, r4, #15
    2b24:	4e8e      	ldr	r6, [pc, #568]	; (2d60 <_dtoa_r+0x5a8>)
    2b26:	b954      	cbnz	r4, 2b3e <_dtoa_r+0x386>
    2b28:	e9dd 2310 	ldrd	r2, r3, [sp, #64]	; 0x40
    2b2c:	e9dd 0104 	ldrd	r0, r1, [sp, #16]
    2b30:	f7fd fdc4 	bl	6bc <__aeabi_ddiv>
    2b34:	e9cd 0104 	strd	r0, r1, [sp, #16]
    2b38:	e029      	b.n	2b8e <_dtoa_r+0x3d6>
    2b3a:	2702      	movs	r7, #2
    2b3c:	e7f2      	b.n	2b24 <_dtoa_r+0x36c>
    2b3e:	07e1      	lsls	r1, r4, #31
    2b40:	d508      	bpl.n	2b54 <_dtoa_r+0x39c>
    2b42:	e9dd 0110 	ldrd	r0, r1, [sp, #64]	; 0x40
    2b46:	e9d6 2300 	ldrd	r2, r3, [r6]
    2b4a:	f7fd fc8d 	bl	468 <__aeabi_dmul>
    2b4e:	e9cd 0110 	strd	r0, r1, [sp, #64]	; 0x40
    2b52:	3701      	adds	r7, #1
    2b54:	1064      	asrs	r4, r4, #1
    2b56:	3608      	adds	r6, #8
    2b58:	e7e5      	b.n	2b26 <_dtoa_r+0x36e>
    2b5a:	f000 80a5 	beq.w	2ca8 <_dtoa_r+0x4f0>
    2b5e:	e9dd 010c 	ldrd	r0, r1, [sp, #48]	; 0x30
    2b62:	f1ca 0400 	rsb	r4, sl, #0
    2b66:	4b7d      	ldr	r3, [pc, #500]	; (2d5c <_dtoa_r+0x5a4>)
    2b68:	f004 020f 	and.w	r2, r4, #15
    2b6c:	eb03 03c2 	add.w	r3, r3, r2, lsl #3
    2b70:	e9d3 2300 	ldrd	r2, r3, [r3]
    2b74:	f7fd fc78 	bl	468 <__aeabi_dmul>
    2b78:	2702      	movs	r7, #2
    2b7a:	2300      	movs	r3, #0
    2b7c:	e9cd 0104 	strd	r0, r1, [sp, #16]
    2b80:	4e77      	ldr	r6, [pc, #476]	; (2d60 <_dtoa_r+0x5a8>)
    2b82:	1124      	asrs	r4, r4, #4
    2b84:	2c00      	cmp	r4, #0
    2b86:	f040 8084 	bne.w	2c92 <_dtoa_r+0x4da>
    2b8a:	2b00      	cmp	r3, #0
    2b8c:	d1d2      	bne.n	2b34 <_dtoa_r+0x37c>
    2b8e:	9b0f      	ldr	r3, [sp, #60]	; 0x3c
    2b90:	2b00      	cmp	r3, #0
    2b92:	f000 808b 	beq.w	2cac <_dtoa_r+0x4f4>
    2b96:	e9dd 3404 	ldrd	r3, r4, [sp, #16]
    2b9a:	e9cd 3410 	strd	r3, r4, [sp, #64]	; 0x40
    2b9e:	e9dd 0110 	ldrd	r0, r1, [sp, #64]	; 0x40
    2ba2:	2200      	movs	r2, #0
    2ba4:	4b6f      	ldr	r3, [pc, #444]	; (2d64 <_dtoa_r+0x5ac>)
    2ba6:	f7fd fed1 	bl	94c <__aeabi_dcmplt>
    2baa:	2800      	cmp	r0, #0
    2bac:	d07e      	beq.n	2cac <_dtoa_r+0x4f4>
    2bae:	9b08      	ldr	r3, [sp, #32]
    2bb0:	2b00      	cmp	r3, #0
    2bb2:	d07b      	beq.n	2cac <_dtoa_r+0x4f4>
    2bb4:	f1b9 0f00 	cmp.w	r9, #0
    2bb8:	dd38      	ble.n	2c2c <_dtoa_r+0x474>
    2bba:	e9dd 0110 	ldrd	r0, r1, [sp, #64]	; 0x40
    2bbe:	2200      	movs	r2, #0
    2bc0:	4b69      	ldr	r3, [pc, #420]	; (2d68 <_dtoa_r+0x5b0>)
    2bc2:	f7fd fc51 	bl	468 <__aeabi_dmul>
    2bc6:	464c      	mov	r4, r9
    2bc8:	e9cd 0104 	strd	r0, r1, [sp, #16]
    2bcc:	f10a 38ff 	add.w	r8, sl, #4294967295	; 0xffffffff
    2bd0:	3701      	adds	r7, #1
    2bd2:	4638      	mov	r0, r7
    2bd4:	f7fd fbde 	bl	394 <__aeabi_i2d>
    2bd8:	e9dd 2304 	ldrd	r2, r3, [sp, #16]
    2bdc:	f7fd fc44 	bl	468 <__aeabi_dmul>
    2be0:	2200      	movs	r2, #0
    2be2:	4b62      	ldr	r3, [pc, #392]	; (2d6c <_dtoa_r+0x5b4>)
    2be4:	f7fd fa8a 	bl	fc <__adddf3>
    2be8:	f1a1 7650 	sub.w	r6, r1, #54525952	; 0x3400000
    2bec:	e9cd 0110 	strd	r0, r1, [sp, #64]	; 0x40
    2bf0:	9611      	str	r6, [sp, #68]	; 0x44
    2bf2:	2c00      	cmp	r4, #0
    2bf4:	d15d      	bne.n	2cb2 <_dtoa_r+0x4fa>
    2bf6:	e9dd 0104 	ldrd	r0, r1, [sp, #16]
    2bfa:	2200      	movs	r2, #0
    2bfc:	4b5c      	ldr	r3, [pc, #368]	; (2d70 <_dtoa_r+0x5b8>)
    2bfe:	f7fd fa7b 	bl	f8 <__aeabi_dsub>
    2c02:	4602      	mov	r2, r0
    2c04:	460b      	mov	r3, r1
    2c06:	e9cd 2304 	strd	r2, r3, [sp, #16]
    2c0a:	4633      	mov	r3, r6
    2c0c:	9a10      	ldr	r2, [sp, #64]	; 0x40
    2c0e:	f7fd febb 	bl	988 <__aeabi_dcmpgt>
    2c12:	2800      	cmp	r0, #0
    2c14:	f040 829c 	bne.w	3150 <_dtoa_r+0x998>
    2c18:	e9dd 0104 	ldrd	r0, r1, [sp, #16]
    2c1c:	9a10      	ldr	r2, [sp, #64]	; 0x40
    2c1e:	f106 4300 	add.w	r3, r6, #2147483648	; 0x80000000
    2c22:	f7fd fe93 	bl	94c <__aeabi_dcmplt>
    2c26:	2800      	cmp	r0, #0
    2c28:	f040 8290 	bne.w	314c <_dtoa_r+0x994>
    2c2c:	e9dd 340c 	ldrd	r3, r4, [sp, #48]	; 0x30
    2c30:	e9cd 3404 	strd	r3, r4, [sp, #16]
    2c34:	9b17      	ldr	r3, [sp, #92]	; 0x5c
    2c36:	2b00      	cmp	r3, #0
    2c38:	f2c0 8152 	blt.w	2ee0 <_dtoa_r+0x728>
    2c3c:	f1ba 0f0e 	cmp.w	sl, #14
    2c40:	f300 814e 	bgt.w	2ee0 <_dtoa_r+0x728>
    2c44:	4b45      	ldr	r3, [pc, #276]	; (2d5c <_dtoa_r+0x5a4>)
    2c46:	eb03 03ca 	add.w	r3, r3, sl, lsl #3
    2c4a:	e9d3 3400 	ldrd	r3, r4, [r3]
    2c4e:	e9cd 3406 	strd	r3, r4, [sp, #24]
    2c52:	9b23      	ldr	r3, [sp, #140]	; 0x8c
    2c54:	2b00      	cmp	r3, #0
    2c56:	f280 80db 	bge.w	2e10 <_dtoa_r+0x658>
    2c5a:	9b08      	ldr	r3, [sp, #32]
    2c5c:	2b00      	cmp	r3, #0
    2c5e:	f300 80d7 	bgt.w	2e10 <_dtoa_r+0x658>
    2c62:	f040 8272 	bne.w	314a <_dtoa_r+0x992>
    2c66:	e9dd 0106 	ldrd	r0, r1, [sp, #24]
    2c6a:	2200      	movs	r2, #0
    2c6c:	4b40      	ldr	r3, [pc, #256]	; (2d70 <_dtoa_r+0x5b8>)
    2c6e:	f7fd fbfb 	bl	468 <__aeabi_dmul>
    2c72:	e9dd 2304 	ldrd	r2, r3, [sp, #16]
    2c76:	f7fd fe7d 	bl	974 <__aeabi_dcmpge>
    2c7a:	9c08      	ldr	r4, [sp, #32]
    2c7c:	4626      	mov	r6, r4
    2c7e:	2800      	cmp	r0, #0
    2c80:	f040 8248 	bne.w	3114 <_dtoa_r+0x95c>
    2c84:	2331      	movs	r3, #49	; 0x31
    2c86:	9f03      	ldr	r7, [sp, #12]
    2c88:	f10a 0a01 	add.w	sl, sl, #1
    2c8c:	f807 3b01 	strb.w	r3, [r7], #1
    2c90:	e244      	b.n	311c <_dtoa_r+0x964>
    2c92:	07e2      	lsls	r2, r4, #31
    2c94:	d505      	bpl.n	2ca2 <_dtoa_r+0x4ea>
    2c96:	e9d6 2300 	ldrd	r2, r3, [r6]
    2c9a:	f7fd fbe5 	bl	468 <__aeabi_dmul>
    2c9e:	2301      	movs	r3, #1
    2ca0:	3701      	adds	r7, #1
    2ca2:	1064      	asrs	r4, r4, #1
    2ca4:	3608      	adds	r6, #8
    2ca6:	e76d      	b.n	2b84 <_dtoa_r+0x3cc>
    2ca8:	2702      	movs	r7, #2
    2caa:	e770      	b.n	2b8e <_dtoa_r+0x3d6>
    2cac:	46d0      	mov	r8, sl
    2cae:	9c08      	ldr	r4, [sp, #32]
    2cb0:	e78f      	b.n	2bd2 <_dtoa_r+0x41a>
    2cb2:	9903      	ldr	r1, [sp, #12]
    2cb4:	4b29      	ldr	r3, [pc, #164]	; (2d5c <_dtoa_r+0x5a4>)
    2cb6:	4421      	add	r1, r4
    2cb8:	9112      	str	r1, [sp, #72]	; 0x48
    2cba:	990b      	ldr	r1, [sp, #44]	; 0x2c
    2cbc:	eb03 03c4 	add.w	r3, r3, r4, lsl #3
    2cc0:	e9dd 6710 	ldrd	r6, r7, [sp, #64]	; 0x40
    2cc4:	e953 2302 	ldrd	r2, r3, [r3, #-8]
    2cc8:	2900      	cmp	r1, #0
    2cca:	d055      	beq.n	2d78 <_dtoa_r+0x5c0>
    2ccc:	2000      	movs	r0, #0
    2cce:	4929      	ldr	r1, [pc, #164]	; (2d74 <_dtoa_r+0x5bc>)
    2cd0:	f7fd fcf4 	bl	6bc <__aeabi_ddiv>
    2cd4:	463b      	mov	r3, r7
    2cd6:	4632      	mov	r2, r6
    2cd8:	f7fd fa0e 	bl	f8 <__aeabi_dsub>
    2cdc:	e9cd 0110 	strd	r0, r1, [sp, #64]	; 0x40
    2ce0:	9f03      	ldr	r7, [sp, #12]
    2ce2:	e9dd 0104 	ldrd	r0, r1, [sp, #16]
    2ce6:	f7fd ff25 	bl	b34 <__aeabi_d2iz>
    2cea:	4604      	mov	r4, r0
    2cec:	f7fd fb52 	bl	394 <__aeabi_i2d>
    2cf0:	4602      	mov	r2, r0
    2cf2:	460b      	mov	r3, r1
    2cf4:	e9dd 0104 	ldrd	r0, r1, [sp, #16]
    2cf8:	f7fd f9fe 	bl	f8 <__aeabi_dsub>
    2cfc:	4602      	mov	r2, r0
    2cfe:	460b      	mov	r3, r1
    2d00:	3430      	adds	r4, #48	; 0x30
    2d02:	e9cd 2304 	strd	r2, r3, [sp, #16]
    2d06:	e9dd 2310 	ldrd	r2, r3, [sp, #64]	; 0x40
    2d0a:	f807 4b01 	strb.w	r4, [r7], #1
    2d0e:	f7fd fe1d 	bl	94c <__aeabi_dcmplt>
    2d12:	2800      	cmp	r0, #0
    2d14:	d174      	bne.n	2e00 <_dtoa_r+0x648>
    2d16:	e9dd 2304 	ldrd	r2, r3, [sp, #16]
    2d1a:	2000      	movs	r0, #0
    2d1c:	4911      	ldr	r1, [pc, #68]	; (2d64 <_dtoa_r+0x5ac>)
    2d1e:	f7fd f9eb 	bl	f8 <__aeabi_dsub>
    2d22:	e9dd 2310 	ldrd	r2, r3, [sp, #64]	; 0x40
    2d26:	f7fd fe11 	bl	94c <__aeabi_dcmplt>
    2d2a:	2800      	cmp	r0, #0
    2d2c:	f040 80b7 	bne.w	2e9e <_dtoa_r+0x6e6>
    2d30:	9b12      	ldr	r3, [sp, #72]	; 0x48
    2d32:	429f      	cmp	r7, r3
    2d34:	f43f af7a 	beq.w	2c2c <_dtoa_r+0x474>
    2d38:	e9dd 0110 	ldrd	r0, r1, [sp, #64]	; 0x40
    2d3c:	2200      	movs	r2, #0
    2d3e:	4b0a      	ldr	r3, [pc, #40]	; (2d68 <_dtoa_r+0x5b0>)
    2d40:	f7fd fb92 	bl	468 <__aeabi_dmul>
    2d44:	2200      	movs	r2, #0
    2d46:	e9cd 0110 	strd	r0, r1, [sp, #64]	; 0x40
    2d4a:	e9dd 0104 	ldrd	r0, r1, [sp, #16]
    2d4e:	4b06      	ldr	r3, [pc, #24]	; (2d68 <_dtoa_r+0x5b0>)
    2d50:	f7fd fb8a 	bl	468 <__aeabi_dmul>
    2d54:	e9cd 0104 	strd	r0, r1, [sp, #16]
    2d58:	e7c3      	b.n	2ce2 <_dtoa_r+0x52a>
    2d5a:	bf00      	nop
    2d5c:	000178d0 	.word	0x000178d0
    2d60:	000178a8 	.word	0x000178a8
    2d64:	3ff00000 	.word	0x3ff00000
    2d68:	40240000 	.word	0x40240000
    2d6c:	401c0000 	.word	0x401c0000
    2d70:	40140000 	.word	0x40140000
    2d74:	3fe00000 	.word	0x3fe00000
    2d78:	4630      	mov	r0, r6
    2d7a:	4639      	mov	r1, r7
    2d7c:	f7fd fb74 	bl	468 <__aeabi_dmul>
    2d80:	9b12      	ldr	r3, [sp, #72]	; 0x48
    2d82:	e9cd 0110 	strd	r0, r1, [sp, #64]	; 0x40
    2d86:	9c03      	ldr	r4, [sp, #12]
    2d88:	9314      	str	r3, [sp, #80]	; 0x50
    2d8a:	e9dd 0104 	ldrd	r0, r1, [sp, #16]
    2d8e:	f7fd fed1 	bl	b34 <__aeabi_d2iz>
    2d92:	9015      	str	r0, [sp, #84]	; 0x54
    2d94:	f7fd fafe 	bl	394 <__aeabi_i2d>
    2d98:	4602      	mov	r2, r0
    2d9a:	460b      	mov	r3, r1
    2d9c:	e9dd 0104 	ldrd	r0, r1, [sp, #16]
    2da0:	f7fd f9aa 	bl	f8 <__aeabi_dsub>
    2da4:	9b15      	ldr	r3, [sp, #84]	; 0x54
    2da6:	4606      	mov	r6, r0
    2da8:	3330      	adds	r3, #48	; 0x30
    2daa:	f804 3b01 	strb.w	r3, [r4], #1
    2dae:	9b12      	ldr	r3, [sp, #72]	; 0x48
    2db0:	460f      	mov	r7, r1
    2db2:	429c      	cmp	r4, r3
    2db4:	f04f 0200 	mov.w	r2, #0
    2db8:	d124      	bne.n	2e04 <_dtoa_r+0x64c>
    2dba:	e9dd 0110 	ldrd	r0, r1, [sp, #64]	; 0x40
    2dbe:	4bb0      	ldr	r3, [pc, #704]	; (3080 <_dtoa_r+0x8c8>)
    2dc0:	f7fd f99c 	bl	fc <__adddf3>
    2dc4:	4602      	mov	r2, r0
    2dc6:	460b      	mov	r3, r1
    2dc8:	4630      	mov	r0, r6
    2dca:	4639      	mov	r1, r7
    2dcc:	f7fd fddc 	bl	988 <__aeabi_dcmpgt>
    2dd0:	2800      	cmp	r0, #0
    2dd2:	d163      	bne.n	2e9c <_dtoa_r+0x6e4>
    2dd4:	e9dd 2310 	ldrd	r2, r3, [sp, #64]	; 0x40
    2dd8:	2000      	movs	r0, #0
    2dda:	49a9      	ldr	r1, [pc, #676]	; (3080 <_dtoa_r+0x8c8>)
    2ddc:	f7fd f98c 	bl	f8 <__aeabi_dsub>
    2de0:	4602      	mov	r2, r0
    2de2:	460b      	mov	r3, r1
    2de4:	4630      	mov	r0, r6
    2de6:	4639      	mov	r1, r7
    2de8:	f7fd fdb0 	bl	94c <__aeabi_dcmplt>
    2dec:	2800      	cmp	r0, #0
    2dee:	f43f af1d 	beq.w	2c2c <_dtoa_r+0x474>
    2df2:	9f14      	ldr	r7, [sp, #80]	; 0x50
    2df4:	1e7b      	subs	r3, r7, #1
    2df6:	9314      	str	r3, [sp, #80]	; 0x50
    2df8:	f817 3c01 	ldrb.w	r3, [r7, #-1]
    2dfc:	2b30      	cmp	r3, #48	; 0x30
    2dfe:	d0f8      	beq.n	2df2 <_dtoa_r+0x63a>
    2e00:	46c2      	mov	sl, r8
    2e02:	e03b      	b.n	2e7c <_dtoa_r+0x6c4>
    2e04:	4b9f      	ldr	r3, [pc, #636]	; (3084 <_dtoa_r+0x8cc>)
    2e06:	f7fd fb2f 	bl	468 <__aeabi_dmul>
    2e0a:	e9cd 0104 	strd	r0, r1, [sp, #16]
    2e0e:	e7bc      	b.n	2d8a <_dtoa_r+0x5d2>
    2e10:	9f03      	ldr	r7, [sp, #12]
    2e12:	e9dd 8904 	ldrd	r8, r9, [sp, #16]
    2e16:	e9dd 2306 	ldrd	r2, r3, [sp, #24]
    2e1a:	4640      	mov	r0, r8
    2e1c:	4649      	mov	r1, r9
    2e1e:	f7fd fc4d 	bl	6bc <__aeabi_ddiv>
    2e22:	f7fd fe87 	bl	b34 <__aeabi_d2iz>
    2e26:	4604      	mov	r4, r0
    2e28:	f7fd fab4 	bl	394 <__aeabi_i2d>
    2e2c:	e9dd 2306 	ldrd	r2, r3, [sp, #24]
    2e30:	f7fd fb1a 	bl	468 <__aeabi_dmul>
    2e34:	4602      	mov	r2, r0
    2e36:	460b      	mov	r3, r1
    2e38:	4640      	mov	r0, r8
    2e3a:	4649      	mov	r1, r9
    2e3c:	f7fd f95c 	bl	f8 <__aeabi_dsub>
    2e40:	f104 0630 	add.w	r6, r4, #48	; 0x30
    2e44:	f807 6b01 	strb.w	r6, [r7], #1
    2e48:	9e03      	ldr	r6, [sp, #12]
    2e4a:	f8dd c020 	ldr.w	ip, [sp, #32]
    2e4e:	1bbe      	subs	r6, r7, r6
    2e50:	45b4      	cmp	ip, r6
    2e52:	4602      	mov	r2, r0
    2e54:	460b      	mov	r3, r1
    2e56:	d136      	bne.n	2ec6 <_dtoa_r+0x70e>
    2e58:	f7fd f950 	bl	fc <__adddf3>
    2e5c:	e9dd 2306 	ldrd	r2, r3, [sp, #24]
    2e60:	4680      	mov	r8, r0
    2e62:	4689      	mov	r9, r1
    2e64:	f7fd fd90 	bl	988 <__aeabi_dcmpgt>
    2e68:	bb58      	cbnz	r0, 2ec2 <_dtoa_r+0x70a>
    2e6a:	e9dd 2306 	ldrd	r2, r3, [sp, #24]
    2e6e:	4640      	mov	r0, r8
    2e70:	4649      	mov	r1, r9
    2e72:	f7fd fd61 	bl	938 <__aeabi_dcmpeq>
    2e76:	b108      	cbz	r0, 2e7c <_dtoa_r+0x6c4>
    2e78:	07e1      	lsls	r1, r4, #31
    2e7a:	d422      	bmi.n	2ec2 <_dtoa_r+0x70a>
    2e7c:	4628      	mov	r0, r5
    2e7e:	4659      	mov	r1, fp
    2e80:	f00d fdae 	bl	109e0 <_Bfree>
    2e84:	2300      	movs	r3, #0
    2e86:	703b      	strb	r3, [r7, #0]
    2e88:	9b24      	ldr	r3, [sp, #144]	; 0x90
    2e8a:	f10a 0001 	add.w	r0, sl, #1
    2e8e:	6018      	str	r0, [r3, #0]
    2e90:	9b26      	ldr	r3, [sp, #152]	; 0x98
    2e92:	2b00      	cmp	r3, #0
    2e94:	f43f acde 	beq.w	2854 <_dtoa_r+0x9c>
    2e98:	601f      	str	r7, [r3, #0]
    2e9a:	e4db      	b.n	2854 <_dtoa_r+0x9c>
    2e9c:	4627      	mov	r7, r4
    2e9e:	463b      	mov	r3, r7
    2ea0:	461f      	mov	r7, r3
    2ea2:	f813 2d01 	ldrb.w	r2, [r3, #-1]!
    2ea6:	2a39      	cmp	r2, #57	; 0x39
    2ea8:	d107      	bne.n	2eba <_dtoa_r+0x702>
    2eaa:	9a03      	ldr	r2, [sp, #12]
    2eac:	429a      	cmp	r2, r3
    2eae:	d1f7      	bne.n	2ea0 <_dtoa_r+0x6e8>
    2eb0:	2230      	movs	r2, #48	; 0x30
    2eb2:	9903      	ldr	r1, [sp, #12]
    2eb4:	f108 0801 	add.w	r8, r8, #1
    2eb8:	700a      	strb	r2, [r1, #0]
    2eba:	781a      	ldrb	r2, [r3, #0]
    2ebc:	3201      	adds	r2, #1
    2ebe:	701a      	strb	r2, [r3, #0]
    2ec0:	e79e      	b.n	2e00 <_dtoa_r+0x648>
    2ec2:	46d0      	mov	r8, sl
    2ec4:	e7eb      	b.n	2e9e <_dtoa_r+0x6e6>
    2ec6:	2200      	movs	r2, #0
    2ec8:	4b6e      	ldr	r3, [pc, #440]	; (3084 <_dtoa_r+0x8cc>)
    2eca:	f7fd facd 	bl	468 <__aeabi_dmul>
    2ece:	2200      	movs	r2, #0
    2ed0:	2300      	movs	r3, #0
    2ed2:	4680      	mov	r8, r0
    2ed4:	4689      	mov	r9, r1
    2ed6:	f7fd fd2f 	bl	938 <__aeabi_dcmpeq>
    2eda:	2800      	cmp	r0, #0
    2edc:	d09b      	beq.n	2e16 <_dtoa_r+0x65e>
    2ede:	e7cd      	b.n	2e7c <_dtoa_r+0x6c4>
    2ee0:	9a0b      	ldr	r2, [sp, #44]	; 0x2c
    2ee2:	2a00      	cmp	r2, #0
    2ee4:	f000 80d0 	beq.w	3088 <_dtoa_r+0x8d0>
    2ee8:	9a22      	ldr	r2, [sp, #136]	; 0x88
    2eea:	2a01      	cmp	r2, #1
    2eec:	f300 80ae 	bgt.w	304c <_dtoa_r+0x894>
    2ef0:	9a13      	ldr	r2, [sp, #76]	; 0x4c
    2ef2:	2a00      	cmp	r2, #0
    2ef4:	f000 80a6 	beq.w	3044 <_dtoa_r+0x88c>
    2ef8:	f203 4333 	addw	r3, r3, #1075	; 0x433
    2efc:	9c0a      	ldr	r4, [sp, #40]	; 0x28
    2efe:	9f06      	ldr	r7, [sp, #24]
    2f00:	9a06      	ldr	r2, [sp, #24]
    2f02:	2101      	movs	r1, #1
    2f04:	441a      	add	r2, r3
    2f06:	9206      	str	r2, [sp, #24]
    2f08:	9a09      	ldr	r2, [sp, #36]	; 0x24
    2f0a:	4628      	mov	r0, r5
    2f0c:	441a      	add	r2, r3
    2f0e:	9209      	str	r2, [sp, #36]	; 0x24
    2f10:	f00d fe18 	bl	10b44 <__i2b>
    2f14:	4606      	mov	r6, r0
    2f16:	2f00      	cmp	r7, #0
    2f18:	dd0c      	ble.n	2f34 <_dtoa_r+0x77c>
    2f1a:	9b09      	ldr	r3, [sp, #36]	; 0x24
    2f1c:	2b00      	cmp	r3, #0
    2f1e:	dd09      	ble.n	2f34 <_dtoa_r+0x77c>
    2f20:	42bb      	cmp	r3, r7
    2f22:	bfa8      	it	ge
    2f24:	463b      	movge	r3, r7
    2f26:	9a06      	ldr	r2, [sp, #24]
    2f28:	1aff      	subs	r7, r7, r3
    2f2a:	1ad2      	subs	r2, r2, r3
    2f2c:	9206      	str	r2, [sp, #24]
    2f2e:	9a09      	ldr	r2, [sp, #36]	; 0x24
    2f30:	1ad3      	subs	r3, r2, r3
    2f32:	9309      	str	r3, [sp, #36]	; 0x24
    2f34:	9b0a      	ldr	r3, [sp, #40]	; 0x28
    2f36:	b1f3      	cbz	r3, 2f76 <_dtoa_r+0x7be>
    2f38:	9b0b      	ldr	r3, [sp, #44]	; 0x2c
    2f3a:	2b00      	cmp	r3, #0
    2f3c:	f000 80a8 	beq.w	3090 <_dtoa_r+0x8d8>
    2f40:	2c00      	cmp	r4, #0
    2f42:	dd10      	ble.n	2f66 <_dtoa_r+0x7ae>
    2f44:	4631      	mov	r1, r6
    2f46:	4622      	mov	r2, r4
    2f48:	4628      	mov	r0, r5
    2f4a:	f00d feb9 	bl	10cc0 <__pow5mult>
    2f4e:	465a      	mov	r2, fp
    2f50:	4601      	mov	r1, r0
    2f52:	4606      	mov	r6, r0
    2f54:	4628      	mov	r0, r5
    2f56:	f00d fe0b 	bl	10b70 <__multiply>
    2f5a:	4680      	mov	r8, r0
    2f5c:	4659      	mov	r1, fp
    2f5e:	4628      	mov	r0, r5
    2f60:	f00d fd3e 	bl	109e0 <_Bfree>
    2f64:	46c3      	mov	fp, r8
    2f66:	9b0a      	ldr	r3, [sp, #40]	; 0x28
    2f68:	1b1a      	subs	r2, r3, r4
    2f6a:	d004      	beq.n	2f76 <_dtoa_r+0x7be>
    2f6c:	4659      	mov	r1, fp
    2f6e:	4628      	mov	r0, r5
    2f70:	f00d fea6 	bl	10cc0 <__pow5mult>
    2f74:	4683      	mov	fp, r0
    2f76:	2101      	movs	r1, #1
    2f78:	4628      	mov	r0, r5
    2f7a:	f00d fde3 	bl	10b44 <__i2b>
    2f7e:	9b0e      	ldr	r3, [sp, #56]	; 0x38
    2f80:	4604      	mov	r4, r0
    2f82:	2b00      	cmp	r3, #0
    2f84:	f340 8086 	ble.w	3094 <_dtoa_r+0x8dc>
    2f88:	461a      	mov	r2, r3
    2f8a:	4601      	mov	r1, r0
    2f8c:	4628      	mov	r0, r5
    2f8e:	f00d fe97 	bl	10cc0 <__pow5mult>
    2f92:	9b22      	ldr	r3, [sp, #136]	; 0x88
    2f94:	4604      	mov	r4, r0
    2f96:	2b01      	cmp	r3, #1
    2f98:	dd7f      	ble.n	309a <_dtoa_r+0x8e2>
    2f9a:	f04f 0800 	mov.w	r8, #0
    2f9e:	6923      	ldr	r3, [r4, #16]
    2fa0:	eb04 0383 	add.w	r3, r4, r3, lsl #2
    2fa4:	6918      	ldr	r0, [r3, #16]
    2fa6:	f014 f95d 	bl	17264 <__hi0bits>
    2faa:	f1c0 0020 	rsb	r0, r0, #32
    2fae:	9b09      	ldr	r3, [sp, #36]	; 0x24
    2fb0:	4418      	add	r0, r3
    2fb2:	f010 001f 	ands.w	r0, r0, #31
    2fb6:	f000 8092 	beq.w	30de <_dtoa_r+0x926>
    2fba:	f1c0 0320 	rsb	r3, r0, #32
    2fbe:	2b04      	cmp	r3, #4
    2fc0:	f340 808a 	ble.w	30d8 <_dtoa_r+0x920>
    2fc4:	f1c0 001c 	rsb	r0, r0, #28
    2fc8:	9b06      	ldr	r3, [sp, #24]
    2fca:	4407      	add	r7, r0
    2fcc:	4403      	add	r3, r0
    2fce:	9306      	str	r3, [sp, #24]
    2fd0:	9b09      	ldr	r3, [sp, #36]	; 0x24
    2fd2:	4403      	add	r3, r0
    2fd4:	9309      	str	r3, [sp, #36]	; 0x24
    2fd6:	9b06      	ldr	r3, [sp, #24]
    2fd8:	2b00      	cmp	r3, #0
    2fda:	dd05      	ble.n	2fe8 <_dtoa_r+0x830>
    2fdc:	4659      	mov	r1, fp
    2fde:	461a      	mov	r2, r3
    2fe0:	4628      	mov	r0, r5
    2fe2:	f00d fec7 	bl	10d74 <__lshift>
    2fe6:	4683      	mov	fp, r0
    2fe8:	9b09      	ldr	r3, [sp, #36]	; 0x24
    2fea:	2b00      	cmp	r3, #0
    2fec:	dd05      	ble.n	2ffa <_dtoa_r+0x842>
    2fee:	4621      	mov	r1, r4
    2ff0:	461a      	mov	r2, r3
    2ff2:	4628      	mov	r0, r5
    2ff4:	f00d febe 	bl	10d74 <__lshift>
    2ff8:	4604      	mov	r4, r0
    2ffa:	9b0f      	ldr	r3, [sp, #60]	; 0x3c
    2ffc:	2b00      	cmp	r3, #0
    2ffe:	d070      	beq.n	30e2 <_dtoa_r+0x92a>
    3000:	4621      	mov	r1, r4
    3002:	4658      	mov	r0, fp
    3004:	f014 f97b 	bl	172fe <__mcmp>
    3008:	2800      	cmp	r0, #0
    300a:	da6a      	bge.n	30e2 <_dtoa_r+0x92a>
    300c:	2300      	movs	r3, #0
    300e:	4659      	mov	r1, fp
    3010:	220a      	movs	r2, #10
    3012:	4628      	mov	r0, r5
    3014:	f00d fd06 	bl	10a24 <__multadd>
    3018:	9b0b      	ldr	r3, [sp, #44]	; 0x2c
    301a:	4683      	mov	fp, r0
    301c:	f10a 3aff 	add.w	sl, sl, #4294967295	; 0xffffffff
    3020:	2b00      	cmp	r3, #0
    3022:	f000 8194 	beq.w	334e <_dtoa_r+0xb96>
    3026:	4631      	mov	r1, r6
    3028:	2300      	movs	r3, #0
    302a:	220a      	movs	r2, #10
    302c:	4628      	mov	r0, r5
    302e:	f00d fcf9 	bl	10a24 <__multadd>
    3032:	f1b9 0f00 	cmp.w	r9, #0
    3036:	4606      	mov	r6, r0
    3038:	f300 8093 	bgt.w	3162 <_dtoa_r+0x9aa>
    303c:	9b22      	ldr	r3, [sp, #136]	; 0x88
    303e:	2b02      	cmp	r3, #2
    3040:	dc57      	bgt.n	30f2 <_dtoa_r+0x93a>
    3042:	e08e      	b.n	3162 <_dtoa_r+0x9aa>
    3044:	9b16      	ldr	r3, [sp, #88]	; 0x58
    3046:	f1c3 0336 	rsb	r3, r3, #54	; 0x36
    304a:	e757      	b.n	2efc <_dtoa_r+0x744>
    304c:	9b08      	ldr	r3, [sp, #32]
    304e:	1e5c      	subs	r4, r3, #1
    3050:	9b0a      	ldr	r3, [sp, #40]	; 0x28
    3052:	42a3      	cmp	r3, r4
    3054:	bfb7      	itett	lt
    3056:	9b0a      	ldrlt	r3, [sp, #40]	; 0x28
    3058:	1b1c      	subge	r4, r3, r4
    305a:	1ae2      	sublt	r2, r4, r3
    305c:	9b0e      	ldrlt	r3, [sp, #56]	; 0x38
    305e:	bfbe      	ittt	lt
    3060:	940a      	strlt	r4, [sp, #40]	; 0x28
    3062:	189b      	addlt	r3, r3, r2
    3064:	930e      	strlt	r3, [sp, #56]	; 0x38
    3066:	9b08      	ldr	r3, [sp, #32]
    3068:	bfb8      	it	lt
    306a:	2400      	movlt	r4, #0
    306c:	2b00      	cmp	r3, #0
    306e:	bfbb      	ittet	lt
    3070:	9b06      	ldrlt	r3, [sp, #24]
    3072:	9a08      	ldrlt	r2, [sp, #32]
    3074:	9f06      	ldrge	r7, [sp, #24]
    3076:	1a9f      	sublt	r7, r3, r2
    3078:	bfac      	ite	ge
    307a:	9b08      	ldrge	r3, [sp, #32]
    307c:	2300      	movlt	r3, #0
    307e:	e73f      	b.n	2f00 <_dtoa_r+0x748>
    3080:	3fe00000 	.word	0x3fe00000
    3084:	40240000 	.word	0x40240000
    3088:	9c0a      	ldr	r4, [sp, #40]	; 0x28
    308a:	9f06      	ldr	r7, [sp, #24]
    308c:	9e0b      	ldr	r6, [sp, #44]	; 0x2c
    308e:	e742      	b.n	2f16 <_dtoa_r+0x75e>
    3090:	9a0a      	ldr	r2, [sp, #40]	; 0x28
    3092:	e76b      	b.n	2f6c <_dtoa_r+0x7b4>
    3094:	9b22      	ldr	r3, [sp, #136]	; 0x88
    3096:	2b01      	cmp	r3, #1
    3098:	dc19      	bgt.n	30ce <_dtoa_r+0x916>
    309a:	9b04      	ldr	r3, [sp, #16]
    309c:	b9bb      	cbnz	r3, 30ce <_dtoa_r+0x916>
    309e:	9b05      	ldr	r3, [sp, #20]
    30a0:	f3c3 0313 	ubfx	r3, r3, #0, #20
    30a4:	b99b      	cbnz	r3, 30ce <_dtoa_r+0x916>
    30a6:	9b05      	ldr	r3, [sp, #20]
    30a8:	f023 4300 	bic.w	r3, r3, #2147483648	; 0x80000000
    30ac:	0d1b      	lsrs	r3, r3, #20
    30ae:	051b      	lsls	r3, r3, #20
    30b0:	b183      	cbz	r3, 30d4 <_dtoa_r+0x91c>
    30b2:	f04f 0801 	mov.w	r8, #1
    30b6:	9b06      	ldr	r3, [sp, #24]
    30b8:	3301      	adds	r3, #1
    30ba:	9306      	str	r3, [sp, #24]
    30bc:	9b09      	ldr	r3, [sp, #36]	; 0x24
    30be:	3301      	adds	r3, #1
    30c0:	9309      	str	r3, [sp, #36]	; 0x24
    30c2:	9b0e      	ldr	r3, [sp, #56]	; 0x38
    30c4:	2b00      	cmp	r3, #0
    30c6:	f47f af6a 	bne.w	2f9e <_dtoa_r+0x7e6>
    30ca:	2001      	movs	r0, #1
    30cc:	e76f      	b.n	2fae <_dtoa_r+0x7f6>
    30ce:	f04f 0800 	mov.w	r8, #0
    30d2:	e7f6      	b.n	30c2 <_dtoa_r+0x90a>
    30d4:	4698      	mov	r8, r3
    30d6:	e7f4      	b.n	30c2 <_dtoa_r+0x90a>
    30d8:	f43f af7d 	beq.w	2fd6 <_dtoa_r+0x81e>
    30dc:	4618      	mov	r0, r3
    30de:	301c      	adds	r0, #28
    30e0:	e772      	b.n	2fc8 <_dtoa_r+0x810>
    30e2:	9b08      	ldr	r3, [sp, #32]
    30e4:	2b00      	cmp	r3, #0
    30e6:	dc36      	bgt.n	3156 <_dtoa_r+0x99e>
    30e8:	9b22      	ldr	r3, [sp, #136]	; 0x88
    30ea:	2b02      	cmp	r3, #2
    30ec:	dd33      	ble.n	3156 <_dtoa_r+0x99e>
    30ee:	f8dd 9020 	ldr.w	r9, [sp, #32]
    30f2:	f1b9 0f00 	cmp.w	r9, #0
    30f6:	d10d      	bne.n	3114 <_dtoa_r+0x95c>
    30f8:	4621      	mov	r1, r4
    30fa:	464b      	mov	r3, r9
    30fc:	2205      	movs	r2, #5
    30fe:	4628      	mov	r0, r5
    3100:	f00d fc90 	bl	10a24 <__multadd>
    3104:	4601      	mov	r1, r0
    3106:	4604      	mov	r4, r0
    3108:	4658      	mov	r0, fp
    310a:	f014 f8f8 	bl	172fe <__mcmp>
    310e:	2800      	cmp	r0, #0
    3110:	f73f adb8 	bgt.w	2c84 <_dtoa_r+0x4cc>
    3114:	9b23      	ldr	r3, [sp, #140]	; 0x8c
    3116:	9f03      	ldr	r7, [sp, #12]
    3118:	ea6f 0a03 	mvn.w	sl, r3
    311c:	f04f 0800 	mov.w	r8, #0
    3120:	4621      	mov	r1, r4
    3122:	4628      	mov	r0, r5
    3124:	f00d fc5c 	bl	109e0 <_Bfree>
    3128:	2e00      	cmp	r6, #0
    312a:	f43f aea7 	beq.w	2e7c <_dtoa_r+0x6c4>
    312e:	f1b8 0f00 	cmp.w	r8, #0
    3132:	d005      	beq.n	3140 <_dtoa_r+0x988>
    3134:	45b0      	cmp	r8, r6
    3136:	d003      	beq.n	3140 <_dtoa_r+0x988>
    3138:	4641      	mov	r1, r8
    313a:	4628      	mov	r0, r5
    313c:	f00d fc50 	bl	109e0 <_Bfree>
    3140:	4631      	mov	r1, r6
    3142:	4628      	mov	r0, r5
    3144:	f00d fc4c 	bl	109e0 <_Bfree>
    3148:	e698      	b.n	2e7c <_dtoa_r+0x6c4>
    314a:	2400      	movs	r4, #0
    314c:	4626      	mov	r6, r4
    314e:	e7e1      	b.n	3114 <_dtoa_r+0x95c>
    3150:	46c2      	mov	sl, r8
    3152:	4626      	mov	r6, r4
    3154:	e596      	b.n	2c84 <_dtoa_r+0x4cc>
    3156:	9b0b      	ldr	r3, [sp, #44]	; 0x2c
    3158:	f8dd 9020 	ldr.w	r9, [sp, #32]
    315c:	2b00      	cmp	r3, #0
    315e:	f000 80fd 	beq.w	335c <_dtoa_r+0xba4>
    3162:	2f00      	cmp	r7, #0
    3164:	dd05      	ble.n	3172 <_dtoa_r+0x9ba>
    3166:	4631      	mov	r1, r6
    3168:	463a      	mov	r2, r7
    316a:	4628      	mov	r0, r5
    316c:	f00d fe02 	bl	10d74 <__lshift>
    3170:	4606      	mov	r6, r0
    3172:	f1b8 0f00 	cmp.w	r8, #0
    3176:	d05c      	beq.n	3232 <_dtoa_r+0xa7a>
    3178:	4628      	mov	r0, r5
    317a:	6871      	ldr	r1, [r6, #4]
    317c:	f00d fbf0 	bl	10960 <_Balloc>
    3180:	4607      	mov	r7, r0
    3182:	b928      	cbnz	r0, 3190 <_dtoa_r+0x9d8>
    3184:	4602      	mov	r2, r0
    3186:	f240 21ea 	movw	r1, #746	; 0x2ea
    318a:	4b7f      	ldr	r3, [pc, #508]	; (3388 <_dtoa_r+0xbd0>)
    318c:	f7ff bb28 	b.w	27e0 <_dtoa_r+0x28>
    3190:	6932      	ldr	r2, [r6, #16]
    3192:	f106 010c 	add.w	r1, r6, #12
    3196:	3202      	adds	r2, #2
    3198:	0092      	lsls	r2, r2, #2
    319a:	300c      	adds	r0, #12
    319c:	f013 fd6e 	bl	16c7c <memcpy>
    31a0:	2201      	movs	r2, #1
    31a2:	4639      	mov	r1, r7
    31a4:	4628      	mov	r0, r5
    31a6:	f00d fde5 	bl	10d74 <__lshift>
    31aa:	46b0      	mov	r8, r6
    31ac:	4606      	mov	r6, r0
    31ae:	9b03      	ldr	r3, [sp, #12]
    31b0:	3301      	adds	r3, #1
    31b2:	9308      	str	r3, [sp, #32]
    31b4:	9b03      	ldr	r3, [sp, #12]
    31b6:	444b      	add	r3, r9
    31b8:	930a      	str	r3, [sp, #40]	; 0x28
    31ba:	9b04      	ldr	r3, [sp, #16]
    31bc:	f003 0301 	and.w	r3, r3, #1
    31c0:	9309      	str	r3, [sp, #36]	; 0x24
    31c2:	9b08      	ldr	r3, [sp, #32]
    31c4:	4621      	mov	r1, r4
    31c6:	3b01      	subs	r3, #1
    31c8:	4658      	mov	r0, fp
    31ca:	9304      	str	r3, [sp, #16]
    31cc:	f013 fe7a 	bl	16ec4 <quorem>
    31d0:	4603      	mov	r3, r0
    31d2:	4641      	mov	r1, r8
    31d4:	3330      	adds	r3, #48	; 0x30
    31d6:	9006      	str	r0, [sp, #24]
    31d8:	4658      	mov	r0, fp
    31da:	930b      	str	r3, [sp, #44]	; 0x2c
    31dc:	f014 f88f 	bl	172fe <__mcmp>
    31e0:	4632      	mov	r2, r6
    31e2:	4681      	mov	r9, r0
    31e4:	4621      	mov	r1, r4
    31e6:	4628      	mov	r0, r5
    31e8:	f00d fe34 	bl	10e54 <__mdiff>
    31ec:	68c2      	ldr	r2, [r0, #12]
    31ee:	4607      	mov	r7, r0
    31f0:	9b0b      	ldr	r3, [sp, #44]	; 0x2c
    31f2:	bb02      	cbnz	r2, 3236 <_dtoa_r+0xa7e>
    31f4:	4601      	mov	r1, r0
    31f6:	4658      	mov	r0, fp
    31f8:	f014 f881 	bl	172fe <__mcmp>
    31fc:	4602      	mov	r2, r0
    31fe:	9b0b      	ldr	r3, [sp, #44]	; 0x2c
    3200:	4639      	mov	r1, r7
    3202:	4628      	mov	r0, r5
    3204:	e9cd 320b 	strd	r3, r2, [sp, #44]	; 0x2c
    3208:	f00d fbea 	bl	109e0 <_Bfree>
    320c:	9b22      	ldr	r3, [sp, #136]	; 0x88
    320e:	9a0c      	ldr	r2, [sp, #48]	; 0x30
    3210:	9f08      	ldr	r7, [sp, #32]
    3212:	ea43 0102 	orr.w	r1, r3, r2
    3216:	9b09      	ldr	r3, [sp, #36]	; 0x24
    3218:	430b      	orrs	r3, r1
    321a:	9b0b      	ldr	r3, [sp, #44]	; 0x2c
    321c:	d10d      	bne.n	323a <_dtoa_r+0xa82>
    321e:	2b39      	cmp	r3, #57	; 0x39
    3220:	d029      	beq.n	3276 <_dtoa_r+0xabe>
    3222:	f1b9 0f00 	cmp.w	r9, #0
    3226:	dd01      	ble.n	322c <_dtoa_r+0xa74>
    3228:	9b06      	ldr	r3, [sp, #24]
    322a:	3331      	adds	r3, #49	; 0x31
    322c:	9a04      	ldr	r2, [sp, #16]
    322e:	7013      	strb	r3, [r2, #0]
    3230:	e776      	b.n	3120 <_dtoa_r+0x968>
    3232:	4630      	mov	r0, r6
    3234:	e7b9      	b.n	31aa <_dtoa_r+0x9f2>
    3236:	2201      	movs	r2, #1
    3238:	e7e2      	b.n	3200 <_dtoa_r+0xa48>
    323a:	f1b9 0f00 	cmp.w	r9, #0
    323e:	db06      	blt.n	324e <_dtoa_r+0xa96>
    3240:	9922      	ldr	r1, [sp, #136]	; 0x88
    3242:	ea41 0909 	orr.w	r9, r1, r9
    3246:	9909      	ldr	r1, [sp, #36]	; 0x24
    3248:	ea59 0101 	orrs.w	r1, r9, r1
    324c:	d120      	bne.n	3290 <_dtoa_r+0xad8>
    324e:	2a00      	cmp	r2, #0
    3250:	ddec      	ble.n	322c <_dtoa_r+0xa74>
    3252:	4659      	mov	r1, fp
    3254:	2201      	movs	r2, #1
    3256:	4628      	mov	r0, r5
    3258:	9308      	str	r3, [sp, #32]
    325a:	f00d fd8b 	bl	10d74 <__lshift>
    325e:	4621      	mov	r1, r4
    3260:	4683      	mov	fp, r0
    3262:	f014 f84c 	bl	172fe <__mcmp>
    3266:	2800      	cmp	r0, #0
    3268:	9b08      	ldr	r3, [sp, #32]
    326a:	dc02      	bgt.n	3272 <_dtoa_r+0xaba>
    326c:	d1de      	bne.n	322c <_dtoa_r+0xa74>
    326e:	07da      	lsls	r2, r3, #31
    3270:	d5dc      	bpl.n	322c <_dtoa_r+0xa74>
    3272:	2b39      	cmp	r3, #57	; 0x39
    3274:	d1d8      	bne.n	3228 <_dtoa_r+0xa70>
    3276:	2339      	movs	r3, #57	; 0x39
    3278:	9a04      	ldr	r2, [sp, #16]
    327a:	7013      	strb	r3, [r2, #0]
    327c:	463b      	mov	r3, r7
    327e:	461f      	mov	r7, r3
    3280:	f817 2c01 	ldrb.w	r2, [r7, #-1]
    3284:	3b01      	subs	r3, #1
    3286:	2a39      	cmp	r2, #57	; 0x39
    3288:	d050      	beq.n	332c <_dtoa_r+0xb74>
    328a:	3201      	adds	r2, #1
    328c:	701a      	strb	r2, [r3, #0]
    328e:	e747      	b.n	3120 <_dtoa_r+0x968>
    3290:	2a00      	cmp	r2, #0
    3292:	dd03      	ble.n	329c <_dtoa_r+0xae4>
    3294:	2b39      	cmp	r3, #57	; 0x39
    3296:	d0ee      	beq.n	3276 <_dtoa_r+0xabe>
    3298:	3301      	adds	r3, #1
    329a:	e7c7      	b.n	322c <_dtoa_r+0xa74>
    329c:	9a08      	ldr	r2, [sp, #32]
    329e:	990a      	ldr	r1, [sp, #40]	; 0x28
    32a0:	f802 3c01 	strb.w	r3, [r2, #-1]
    32a4:	428a      	cmp	r2, r1
    32a6:	d02a      	beq.n	32fe <_dtoa_r+0xb46>
    32a8:	4659      	mov	r1, fp
    32aa:	2300      	movs	r3, #0
    32ac:	220a      	movs	r2, #10
    32ae:	4628      	mov	r0, r5
    32b0:	f00d fbb8 	bl	10a24 <__multadd>
    32b4:	45b0      	cmp	r8, r6
    32b6:	4683      	mov	fp, r0
    32b8:	f04f 0300 	mov.w	r3, #0
    32bc:	f04f 020a 	mov.w	r2, #10
    32c0:	4641      	mov	r1, r8
    32c2:	4628      	mov	r0, r5
    32c4:	d107      	bne.n	32d6 <_dtoa_r+0xb1e>
    32c6:	f00d fbad 	bl	10a24 <__multadd>
    32ca:	4680      	mov	r8, r0
    32cc:	4606      	mov	r6, r0
    32ce:	9b08      	ldr	r3, [sp, #32]
    32d0:	3301      	adds	r3, #1
    32d2:	9308      	str	r3, [sp, #32]
    32d4:	e775      	b.n	31c2 <_dtoa_r+0xa0a>
    32d6:	f00d fba5 	bl	10a24 <__multadd>
    32da:	4631      	mov	r1, r6
    32dc:	4680      	mov	r8, r0
    32de:	2300      	movs	r3, #0
    32e0:	220a      	movs	r2, #10
    32e2:	4628      	mov	r0, r5
    32e4:	f00d fb9e 	bl	10a24 <__multadd>
    32e8:	4606      	mov	r6, r0
    32ea:	e7f0      	b.n	32ce <_dtoa_r+0xb16>
    32ec:	f1b9 0f00 	cmp.w	r9, #0
    32f0:	bfcc      	ite	gt
    32f2:	464f      	movgt	r7, r9
    32f4:	2701      	movle	r7, #1
    32f6:	f04f 0800 	mov.w	r8, #0
    32fa:	9a03      	ldr	r2, [sp, #12]
    32fc:	4417      	add	r7, r2
    32fe:	4659      	mov	r1, fp
    3300:	2201      	movs	r2, #1
    3302:	4628      	mov	r0, r5
    3304:	9308      	str	r3, [sp, #32]
    3306:	f00d fd35 	bl	10d74 <__lshift>
    330a:	4621      	mov	r1, r4
    330c:	4683      	mov	fp, r0
    330e:	f013 fff6 	bl	172fe <__mcmp>
    3312:	2800      	cmp	r0, #0
    3314:	dcb2      	bgt.n	327c <_dtoa_r+0xac4>
    3316:	d102      	bne.n	331e <_dtoa_r+0xb66>
    3318:	9b08      	ldr	r3, [sp, #32]
    331a:	07db      	lsls	r3, r3, #31
    331c:	d4ae      	bmi.n	327c <_dtoa_r+0xac4>
    331e:	463b      	mov	r3, r7
    3320:	461f      	mov	r7, r3
    3322:	f813 2d01 	ldrb.w	r2, [r3, #-1]!
    3326:	2a30      	cmp	r2, #48	; 0x30
    3328:	d0fa      	beq.n	3320 <_dtoa_r+0xb68>
    332a:	e6f9      	b.n	3120 <_dtoa_r+0x968>
    332c:	9a03      	ldr	r2, [sp, #12]
    332e:	429a      	cmp	r2, r3
    3330:	d1a5      	bne.n	327e <_dtoa_r+0xac6>
    3332:	2331      	movs	r3, #49	; 0x31
    3334:	f10a 0a01 	add.w	sl, sl, #1
    3338:	e779      	b.n	322e <_dtoa_r+0xa76>
    333a:	4b14      	ldr	r3, [pc, #80]	; (338c <_dtoa_r+0xbd4>)
    333c:	f7ff baa8 	b.w	2890 <_dtoa_r+0xd8>
    3340:	9b26      	ldr	r3, [sp, #152]	; 0x98
    3342:	2b00      	cmp	r3, #0
    3344:	f47f aa81 	bne.w	284a <_dtoa_r+0x92>
    3348:	4b11      	ldr	r3, [pc, #68]	; (3390 <_dtoa_r+0xbd8>)
    334a:	f7ff baa1 	b.w	2890 <_dtoa_r+0xd8>
    334e:	f1b9 0f00 	cmp.w	r9, #0
    3352:	dc03      	bgt.n	335c <_dtoa_r+0xba4>
    3354:	9b22      	ldr	r3, [sp, #136]	; 0x88
    3356:	2b02      	cmp	r3, #2
    3358:	f73f aecb 	bgt.w	30f2 <_dtoa_r+0x93a>
    335c:	9f03      	ldr	r7, [sp, #12]
    335e:	4621      	mov	r1, r4
    3360:	4658      	mov	r0, fp
    3362:	f013 fdaf 	bl	16ec4 <quorem>
    3366:	9a03      	ldr	r2, [sp, #12]
    3368:	f100 0330 	add.w	r3, r0, #48	; 0x30
    336c:	f807 3b01 	strb.w	r3, [r7], #1
    3370:	1aba      	subs	r2, r7, r2
    3372:	4591      	cmp	r9, r2
    3374:	ddba      	ble.n	32ec <_dtoa_r+0xb34>
    3376:	4659      	mov	r1, fp
    3378:	2300      	movs	r3, #0
    337a:	220a      	movs	r2, #10
    337c:	4628      	mov	r0, r5
    337e:	f00d fb51 	bl	10a24 <__multadd>
    3382:	4683      	mov	fp, r0
    3384:	e7eb      	b.n	335e <_dtoa_r+0xba6>
    3386:	bf00      	nop
    3388:	00018d1e 	.word	0x00018d1e
    338c:	00017d64 	.word	0x00017d64
    3390:	00018ca2 	.word	0x00018ca2

00003394 <main>:
#include <lua/lua.h>
#include <lua/lauxlib.h>
#include <lua/lualib.h>

int main(void)
{
    3394:	b537      	push	{r0, r1, r2, r4, r5, lr}
	printk("LUA starting ...\n");
    3396:	480e      	ldr	r0, [pc, #56]	; (33d0 <main+0x3c>)
    3398:	f00e faf3 	bl	11982 <printk>

	lua_State *L = luaL_newstate();
    339c:	f001 f8fa 	bl	4594 <luaL_newstate>
	luaL_loadstring(L, "print('Hello, world!')");
	lua_pcall(L, 0, LUA_MULTRET, 0);
    33a0:	2400      	movs	r4, #0
	lua_State *L = luaL_newstate();
    33a2:	4605      	mov	r5, r0
	luaL_loadstring(L, "print('Hello, world!')");
    33a4:	490b      	ldr	r1, [pc, #44]	; (33d4 <main+0x40>)
    33a6:	f00e fbfa 	bl	11b9e <luaL_loadstring>
	lua_pcall(L, 0, LUA_MULTRET, 0);
    33aa:	4623      	mov	r3, r4
    33ac:	f04f 32ff 	mov.w	r2, #4294967295	; 0xffffffff
    33b0:	4621      	mov	r1, r4
    33b2:	4628      	mov	r0, r5
    33b4:	e9cd 4400 	strd	r4, r4, [sp]
    33b8:	f000 ffc4 	bl	4344 <lua_pcallk>
	lua_close(L);
    33bc:	4628      	mov	r0, r5
    33be:	f012 fa7e 	bl	158be <lua_close>

	printk("LUA done ...\n");
    33c2:	4805      	ldr	r0, [pc, #20]	; (33d8 <main+0x44>)
    33c4:	f00e fadd 	bl	11982 <printk>

	return 0;
    33c8:	4620      	mov	r0, r4
    33ca:	b003      	add	sp, #12
    33cc:	bd30      	pop	{r4, r5, pc}
    33ce:	bf00      	nop
    33d0:	00017cf0 	.word	0x00017cf0
    33d4:	00017d02 	.word	0x00017d02
    33d8:	00017d19 	.word	0x00017d19

000033dc <char_out>:

static int char_out(int c, void *ctx_p)
{
	struct out_context *ctx = ctx_p;

	ctx->count++;
    33dc:	680b      	ldr	r3, [r1, #0]
    33de:	3301      	adds	r3, #1
    33e0:	600b      	str	r3, [r1, #0]
	return _char_out(c);
    33e2:	4b01      	ldr	r3, [pc, #4]	; (33e8 <char_out+0xc>)
    33e4:	681b      	ldr	r3, [r3, #0]
    33e6:	4718      	bx	r3
    33e8:	20000000 	.word	0x20000000

000033ec <__printk_hook_install>:
	_char_out = fn;
    33ec:	4b01      	ldr	r3, [pc, #4]	; (33f4 <__printk_hook_install+0x8>)
    33ee:	6018      	str	r0, [r3, #0]
}
    33f0:	4770      	bx	lr
    33f2:	bf00      	nop
    33f4:	20000000 	.word	0x20000000

000033f8 <vprintk>:
}

void vprintk(const char *fmt, va_list ap)
{
    33f8:	b507      	push	{r0, r1, r2, lr}
    33fa:	460b      	mov	r3, r1

		if (ctx.buf_count) {
			buf_flush(&ctx);
		}
	} else {
		struct out_context ctx = { 0 };
    33fc:	2100      	movs	r1, #0
{
    33fe:	4602      	mov	r2, r0
		struct out_context ctx = { 0 };
    3400:	9101      	str	r1, [sp, #4]
#ifdef CONFIG_PRINTK_SYNC
		k_spinlock_key_t key = k_spin_lock(&lock);
#endif

		cbvprintf(char_out, &ctx, fmt, ap);
    3402:	4803      	ldr	r0, [pc, #12]	; (3410 <vprintk+0x18>)
    3404:	a901      	add	r1, sp, #4
    3406:	f000 f865 	bl	34d4 <cbvprintf>

#ifdef CONFIG_PRINTK_SYNC
		k_spin_unlock(&lock, key);
#endif
	}
}
    340a:	b003      	add	sp, #12
    340c:	f85d fb04 	ldr.w	pc, [sp], #4
    3410:	000033dd 	.word	0x000033dd

00003414 <extract_decimal>:
 * the referenced text.
 *
 * @return the decoded integer value.
 */
static size_t extract_decimal(const char **str)
{
    3414:	b5f0      	push	{r4, r5, r6, r7, lr}
    3416:	4603      	mov	r3, r0
    3418:	6802      	ldr	r2, [r0, #0]
	const char *sp = *str;
	size_t val = 0;

	while (isdigit((int)(unsigned char)*sp)) {
		val = 10U * val + *sp++ - '0';
    341a:	270a      	movs	r7, #10
	size_t val = 0;
    341c:	2000      	movs	r0, #0
	while (isdigit((int)(unsigned char)*sp)) {
    341e:	4e06      	ldr	r6, [pc, #24]	; (3438 <extract_decimal+0x24>)
    3420:	4611      	mov	r1, r2
    3422:	780c      	ldrb	r4, [r1, #0]
    3424:	3201      	adds	r2, #1
    3426:	5da5      	ldrb	r5, [r4, r6]
    3428:	076d      	lsls	r5, r5, #29
    342a:	d401      	bmi.n	3430 <extract_decimal+0x1c>
	}
	*str = sp;
    342c:	6019      	str	r1, [r3, #0]
	return val;
}
    342e:	bdf0      	pop	{r4, r5, r6, r7, pc}
		val = 10U * val + *sp++ - '0';
    3430:	fb07 4000 	mla	r0, r7, r0, r4
    3434:	3830      	subs	r0, #48	; 0x30
    3436:	e7f3      	b.n	3420 <extract_decimal+0xc>
    3438:	00018aec 	.word	0x00018aec

0000343c <encode_uint>:
 */
static char *encode_uint(uint_value_type value,
			 struct conversion *conv,
			 char *bps,
			 const char *bpe)
{
    343c:	e92d 4ff8 	stmdb	sp!, {r3, r4, r5, r6, r7, r8, r9, sl, fp, lr}
    3440:	4615      	mov	r5, r2
    3442:	469a      	mov	sl, r3
	bool upcase = isupper((int)conv->specifier);
    3444:	78d3      	ldrb	r3, [r2, #3]
    3446:	4a22      	ldr	r2, [pc, #136]	; (34d0 <encode_uint+0x94>)
	switch (specifier) {
    3448:	2b6f      	cmp	r3, #111	; 0x6f
    344a:	f813 b002 	ldrb.w	fp, [r3, r2]
{
    344e:	4680      	mov	r8, r0
    3450:	460f      	mov	r7, r1
    3452:	f00b 0b03 	and.w	fp, fp, #3
	switch (specifier) {
    3456:	d029      	beq.n	34ac <encode_uint+0x70>
    3458:	d824      	bhi.n	34a4 <encode_uint+0x68>
		return 16;
    345a:	2b58      	cmp	r3, #88	; 0x58
    345c:	bf14      	ite	ne
    345e:	260a      	movne	r6, #10
    3460:	2610      	moveq	r6, #16
	const unsigned int radix = conversion_radix(conv->specifier);
	char *bp = bps + (bpe - bps);
    3462:	f8dd 9028 	ldr.w	r9, [sp, #40]	; 0x28

	do {
		unsigned int lsv = (unsigned int)(value % radix);
    3466:	4632      	mov	r2, r6
    3468:	2300      	movs	r3, #0
    346a:	4640      	mov	r0, r8
    346c:	4639      	mov	r1, r7
    346e:	f7fd fae5 	bl	a3c <__aeabi_uldivmod>

		*--bp = (lsv <= 9) ? ('0' + lsv)
    3472:	2a09      	cmp	r2, #9
    3474:	b2d4      	uxtb	r4, r2
    3476:	d81e      	bhi.n	34b6 <encode_uint+0x7a>
    3478:	3430      	adds	r4, #48	; 0x30
			: upcase ? ('A' + lsv - 10) : ('a' + lsv - 10);
		value /= radix;
	} while ((value != 0) && (bps < bp));
    347a:	45b0      	cmp	r8, r6
		*--bp = (lsv <= 9) ? ('0' + lsv)
    347c:	b2e4      	uxtb	r4, r4
	} while ((value != 0) && (bps < bp));
    347e:	f177 0300 	sbcs.w	r3, r7, #0
		*--bp = (lsv <= 9) ? ('0' + lsv)
    3482:	f809 4d01 	strb.w	r4, [r9, #-1]!
	} while ((value != 0) && (bps < bp));
    3486:	d301      	bcc.n	348c <encode_uint+0x50>
    3488:	45d1      	cmp	r9, sl
    348a:	d811      	bhi.n	34b0 <encode_uint+0x74>

	/* Record required alternate forms.  This can be determined
	 * from the radix without re-checking specifier.
	 */
	if (conv->flag_hash) {
    348c:	782b      	ldrb	r3, [r5, #0]
    348e:	069b      	lsls	r3, r3, #26
    3490:	d505      	bpl.n	349e <encode_uint+0x62>
		if (radix == 8) {
    3492:	2e08      	cmp	r6, #8
    3494:	d115      	bne.n	34c2 <encode_uint+0x86>
			conv->altform_0 = true;
    3496:	78ab      	ldrb	r3, [r5, #2]
    3498:	f043 0308 	orr.w	r3, r3, #8
		} else if (radix == 16) {
			conv->altform_0c = true;
    349c:	70ab      	strb	r3, [r5, #2]
			;
		}
	}

	return bp;
}
    349e:	4648      	mov	r0, r9
    34a0:	e8bd 8ff8 	ldmia.w	sp!, {r3, r4, r5, r6, r7, r8, r9, sl, fp, pc}
	switch (specifier) {
    34a4:	f003 03f7 	and.w	r3, r3, #247	; 0xf7
		return 16;
    34a8:	2b70      	cmp	r3, #112	; 0x70
    34aa:	e7d7      	b.n	345c <encode_uint+0x20>
	switch (specifier) {
    34ac:	2608      	movs	r6, #8
    34ae:	e7d8      	b.n	3462 <encode_uint+0x26>
		value /= radix;
    34b0:	4680      	mov	r8, r0
    34b2:	460f      	mov	r7, r1
    34b4:	e7d7      	b.n	3466 <encode_uint+0x2a>
		*--bp = (lsv <= 9) ? ('0' + lsv)
    34b6:	f1bb 0f01 	cmp.w	fp, #1
    34ba:	bf0c      	ite	eq
    34bc:	3437      	addeq	r4, #55	; 0x37
    34be:	3457      	addne	r4, #87	; 0x57
    34c0:	e7db      	b.n	347a <encode_uint+0x3e>
		} else if (radix == 16) {
    34c2:	2e10      	cmp	r6, #16
    34c4:	d1eb      	bne.n	349e <encode_uint+0x62>
			conv->altform_0c = true;
    34c6:	78ab      	ldrb	r3, [r5, #2]
    34c8:	f043 0310 	orr.w	r3, r3, #16
    34cc:	e7e6      	b.n	349c <encode_uint+0x60>
    34ce:	bf00      	nop
    34d0:	00018aec 	.word	0x00018aec

000034d4 <cbvprintf>:

	return (int)count;
}

int cbvprintf(cbprintf_cb out, void *ctx, const char *fp, va_list ap)
{
    34d4:	e92d 4ff0 	stmdb	sp!, {r4, r5, r6, r7, r8, r9, sl, fp, lr}
    34d8:	4682      	mov	sl, r0
    34da:	468b      	mov	fp, r1
    34dc:	4691      	mov	r9, r2
    34de:	461c      	mov	r4, r3
	char buf[CONVERTED_BUFLEN];
	size_t count = 0;
    34e0:	2500      	movs	r5, #0
{
    34e2:	b093      	sub	sp, #76	; 0x4c
		return rc; \
	} \
	count += rc; \
} while (false)

	while (*fp != 0) {
    34e4:	f899 0000 	ldrb.w	r0, [r9]
    34e8:	b908      	cbnz	r0, 34ee <cbvprintf+0x1a>
			OUTC(' ');
			--width;
		}
	}

	return count;
    34ea:	4628      	mov	r0, r5
    34ec:	e33d      	b.n	3b6a <cbvprintf+0x696>
			OUTC(*fp++);
    34ee:	f109 0301 	add.w	r3, r9, #1
		if (*fp != '%') {
    34f2:	2825      	cmp	r0, #37	; 0x25
			OUTC(*fp++);
    34f4:	9302      	str	r3, [sp, #8]
		if (*fp != '%') {
    34f6:	d006      	beq.n	3506 <cbvprintf+0x32>
			OUTC('%');
    34f8:	4659      	mov	r1, fp
    34fa:	47d0      	blx	sl
    34fc:	2800      	cmp	r0, #0
    34fe:	f2c0 8334 	blt.w	3b6a <cbvprintf+0x696>
    3502:	3501      	adds	r5, #1
			break;
    3504:	e1f5      	b.n	38f2 <cbvprintf+0x41e>
		} state = {
    3506:	2218      	movs	r2, #24
    3508:	2100      	movs	r1, #0
    350a:	a80c      	add	r0, sp, #48	; 0x30
    350c:	f013 fbc4 	bl	16c98 <memset>
	if (*sp == '%') {
    3510:	f899 3001 	ldrb.w	r3, [r9, #1]
    3514:	2b25      	cmp	r3, #37	; 0x25
    3516:	d05a      	beq.n	35ce <cbvprintf+0xfa>
    3518:	f109 0201 	add.w	r2, r9, #1
    351c:	4616      	mov	r6, r2
		switch (*sp) {
    351e:	f812 3b01 	ldrb.w	r3, [r2], #1
    3522:	2b2b      	cmp	r3, #43	; 0x2b
    3524:	f000 808b 	beq.w	363e <cbvprintf+0x16a>
    3528:	d879      	bhi.n	361e <cbvprintf+0x14a>
    352a:	2b20      	cmp	r3, #32
    352c:	f000 808c 	beq.w	3648 <cbvprintf+0x174>
    3530:	2b23      	cmp	r3, #35	; 0x23
    3532:	f000 808e 	beq.w	3652 <cbvprintf+0x17e>
	if (conv->flag_zero && conv->flag_dash) {
    3536:	f89d 3038 	ldrb.w	r3, [sp, #56]	; 0x38
    353a:	f003 0244 	and.w	r2, r3, #68	; 0x44
    353e:	2a44      	cmp	r2, #68	; 0x44
    3540:	d103      	bne.n	354a <cbvprintf+0x76>
		conv->flag_zero = false;
    3542:	f36f 1386 	bfc	r3, #6, #1
    3546:	f88d 3038 	strb.w	r3, [sp, #56]	; 0x38
	conv->width_present = true;
    354a:	f89d 3038 	ldrb.w	r3, [sp, #56]	; 0x38
    354e:	9605      	str	r6, [sp, #20]
    3550:	f043 0380 	orr.w	r3, r3, #128	; 0x80
    3554:	f88d 3038 	strb.w	r3, [sp, #56]	; 0x38
	if (*sp == '*') {
    3558:	7833      	ldrb	r3, [r6, #0]
    355a:	2b2a      	cmp	r3, #42	; 0x2a
    355c:	d17e      	bne.n	365c <cbvprintf+0x188>
		conv->width_star = true;
    355e:	f89d 3039 	ldrb.w	r3, [sp, #57]	; 0x39
    3562:	f043 0301 	orr.w	r3, r3, #1
    3566:	f88d 3039 	strb.w	r3, [sp, #57]	; 0x39
		return ++sp;
    356a:	1c73      	adds	r3, r6, #1
	sp = extract_prec(conv, sp);
    356c:	9305      	str	r3, [sp, #20]
	conv->prec_present = (*sp == '.');
    356e:	781a      	ldrb	r2, [r3, #0]
    3570:	2a2e      	cmp	r2, #46	; 0x2e
    3572:	bf0c      	ite	eq
    3574:	2101      	moveq	r1, #1
    3576:	2100      	movne	r1, #0
    3578:	f89d 2039 	ldrb.w	r2, [sp, #57]	; 0x39
    357c:	f361 0241 	bfi	r2, r1, #1, #1
    3580:	f88d 2039 	strb.w	r2, [sp, #57]	; 0x39
	if (!conv->prec_present) {
    3584:	d10b      	bne.n	359e <cbvprintf+0xca>
	++sp;
    3586:	1c5a      	adds	r2, r3, #1
    3588:	9205      	str	r2, [sp, #20]
	if (*sp == '*') {
    358a:	785a      	ldrb	r2, [r3, #1]
    358c:	2a2a      	cmp	r2, #42	; 0x2a
    358e:	d17b      	bne.n	3688 <cbvprintf+0x1b4>
		conv->prec_star = true;
    3590:	f89d 2039 	ldrb.w	r2, [sp, #57]	; 0x39
		return ++sp;
    3594:	3302      	adds	r3, #2
		conv->prec_star = true;
    3596:	f042 0204 	orr.w	r2, r2, #4
    359a:	f88d 2039 	strb.w	r2, [sp, #57]	; 0x39
	switch (*sp) {
    359e:	4619      	mov	r1, r3
    35a0:	f811 0b01 	ldrb.w	r0, [r1], #1
    35a4:	286c      	cmp	r0, #108	; 0x6c
    35a6:	f000 80b6 	beq.w	3716 <cbvprintf+0x242>
    35aa:	d87d      	bhi.n	36a8 <cbvprintf+0x1d4>
    35ac:	2868      	cmp	r0, #104	; 0x68
    35ae:	f000 8084 	beq.w	36ba <cbvprintf+0x1e6>
    35b2:	286a      	cmp	r0, #106	; 0x6a
    35b4:	f000 80b9 	beq.w	372a <cbvprintf+0x256>
    35b8:	284c      	cmp	r0, #76	; 0x4c
    35ba:	f000 80bd 	beq.w	3738 <cbvprintf+0x264>
		conv->length_mod = LENGTH_NONE;
    35be:	f89d 2039 	ldrb.w	r2, [sp, #57]	; 0x39
		break;
    35c2:	4619      	mov	r1, r3
		conv->length_mod = LENGTH_NONE;
    35c4:	f36f 02c6 	bfc	r2, #3, #4
    35c8:	f88d 2039 	strb.w	r2, [sp, #57]	; 0x39
		break;
    35cc:	e080      	b.n	36d0 <cbvprintf+0x1fc>
		conv->specifier = *sp++;
    35ce:	f109 0202 	add.w	r2, r9, #2
    35d2:	9202      	str	r2, [sp, #8]
    35d4:	f88d 303b 	strb.w	r3, [sp, #59]	; 0x3b
		if (conv->width_star) {
    35d8:	f89d 3039 	ldrb.w	r3, [sp, #57]	; 0x39
    35dc:	07d9      	lsls	r1, r3, #31
    35de:	f140 814a 	bpl.w	3876 <cbvprintf+0x3a2>
			width = va_arg(ap, int);
    35e2:	f854 8b04 	ldr.w	r8, [r4], #4
			if (width < 0) {
    35e6:	f1b8 0f00 	cmp.w	r8, #0
    35ea:	da07      	bge.n	35fc <cbvprintf+0x128>
				conv->flag_dash = true;
    35ec:	f89d 2038 	ldrb.w	r2, [sp, #56]	; 0x38
				width = -width;
    35f0:	f1c8 0800 	rsb	r8, r8, #0
				conv->flag_dash = true;
    35f4:	f042 0204 	orr.w	r2, r2, #4
    35f8:	f88d 2038 	strb.w	r2, [sp, #56]	; 0x38
		if (conv->prec_star) {
    35fc:	075a      	lsls	r2, r3, #29
    35fe:	f140 8143 	bpl.w	3888 <cbvprintf+0x3b4>
			int arg = va_arg(ap, int);
    3602:	f854 7b04 	ldr.w	r7, [r4], #4
			if (arg < 0) {
    3606:	2f00      	cmp	r7, #0
    3608:	f280 8142 	bge.w	3890 <cbvprintf+0x3bc>
				conv->prec_present = false;
    360c:	f89d 3039 	ldrb.w	r3, [sp, #57]	; 0x39
    3610:	f36f 0341 	bfc	r3, #1, #1
    3614:	f88d 3039 	strb.w	r3, [sp, #57]	; 0x39
		int precision = -1;
    3618:	f04f 37ff 	mov.w	r7, #4294967295	; 0xffffffff
    361c:	e138      	b.n	3890 <cbvprintf+0x3bc>
		switch (*sp) {
    361e:	2b2d      	cmp	r3, #45	; 0x2d
    3620:	d006      	beq.n	3630 <cbvprintf+0x15c>
    3622:	2b30      	cmp	r3, #48	; 0x30
    3624:	d187      	bne.n	3536 <cbvprintf+0x62>
			conv->flag_zero = true;
    3626:	f89d 3038 	ldrb.w	r3, [sp, #56]	; 0x38
    362a:	f043 0340 	orr.w	r3, r3, #64	; 0x40
    362e:	e003      	b.n	3638 <cbvprintf+0x164>
			conv->flag_dash = true;
    3630:	f89d 3038 	ldrb.w	r3, [sp, #56]	; 0x38
    3634:	f043 0304 	orr.w	r3, r3, #4
			conv->flag_zero = true;
    3638:	f88d 3038 	strb.w	r3, [sp, #56]	; 0x38
			break;
    363c:	e76e      	b.n	351c <cbvprintf+0x48>
			conv->flag_plus = true;
    363e:	f89d 3038 	ldrb.w	r3, [sp, #56]	; 0x38
    3642:	f043 0308 	orr.w	r3, r3, #8
    3646:	e7f7      	b.n	3638 <cbvprintf+0x164>
			conv->flag_space = true;
    3648:	f89d 3038 	ldrb.w	r3, [sp, #56]	; 0x38
    364c:	f043 0310 	orr.w	r3, r3, #16
    3650:	e7f2      	b.n	3638 <cbvprintf+0x164>
			conv->flag_hash = true;
    3652:	f89d 3038 	ldrb.w	r3, [sp, #56]	; 0x38
    3656:	f043 0320 	orr.w	r3, r3, #32
    365a:	e7ed      	b.n	3638 <cbvprintf+0x164>
	size_t width = extract_decimal(&sp);
    365c:	a805      	add	r0, sp, #20
    365e:	f7ff fed9 	bl	3414 <extract_decimal>
	if (sp != wp) {
    3662:	9b05      	ldr	r3, [sp, #20]
    3664:	42b3      	cmp	r3, r6
    3666:	d081      	beq.n	356c <cbvprintf+0x98>
		conv->unsupported |= ((conv->width_value < 0)
    3668:	f89d 1038 	ldrb.w	r1, [sp, #56]	; 0x38
		conv->width_value = width;
    366c:	900f      	str	r0, [sp, #60]	; 0x3c
		conv->unsupported |= ((conv->width_value < 0)
    366e:	f3c1 0240 	ubfx	r2, r1, #1, #1
    3672:	ea42 72d0 	orr.w	r2, r2, r0, lsr #31
    3676:	0052      	lsls	r2, r2, #1
    3678:	f062 027f 	orn	r2, r2, #127	; 0x7f
    367c:	f001 017d 	and.w	r1, r1, #125	; 0x7d
    3680:	430a      	orrs	r2, r1
    3682:	f88d 2038 	strb.w	r2, [sp, #56]	; 0x38
    3686:	e771      	b.n	356c <cbvprintf+0x98>
	size_t prec = extract_decimal(&sp);
    3688:	a805      	add	r0, sp, #20
    368a:	f7ff fec3 	bl	3414 <extract_decimal>
	conv->unsupported |= ((conv->prec_value < 0)
    368e:	f89d 3038 	ldrb.w	r3, [sp, #56]	; 0x38
	conv->prec_value = prec;
    3692:	9010      	str	r0, [sp, #64]	; 0x40
	conv->unsupported |= ((conv->prec_value < 0)
    3694:	f3c3 0240 	ubfx	r2, r3, #1, #1
    3698:	ea42 70d0 	orr.w	r0, r2, r0, lsr #31
    369c:	f360 0341 	bfi	r3, r0, #1, #1
    36a0:	f88d 3038 	strb.w	r3, [sp, #56]	; 0x38
	return sp;
    36a4:	9b05      	ldr	r3, [sp, #20]
    36a6:	e77a      	b.n	359e <cbvprintf+0xca>
	switch (*sp) {
    36a8:	2874      	cmp	r0, #116	; 0x74
    36aa:	f89d 2039 	ldrb.w	r2, [sp, #57]	; 0x39
    36ae:	d040      	beq.n	3732 <cbvprintf+0x25e>
    36b0:	287a      	cmp	r0, #122	; 0x7a
    36b2:	d184      	bne.n	35be <cbvprintf+0xea>
		conv->length_mod = LENGTH_Z;
    36b4:	4613      	mov	r3, r2
    36b6:	2206      	movs	r2, #6
    36b8:	e028      	b.n	370c <cbvprintf+0x238>
		if (*++sp == 'h') {
    36ba:	785a      	ldrb	r2, [r3, #1]
    36bc:	2a68      	cmp	r2, #104	; 0x68
    36be:	f89d 2039 	ldrb.w	r2, [sp, #57]	; 0x39
    36c2:	d121      	bne.n	3708 <cbvprintf+0x234>
			conv->length_mod = LENGTH_HH;
    36c4:	2101      	movs	r1, #1
			conv->length_mod = LENGTH_LL;
    36c6:	f361 02c6 	bfi	r2, r1, #3, #4
    36ca:	f88d 2039 	strb.w	r2, [sp, #57]	; 0x39
			++sp;
    36ce:	1c99      	adds	r1, r3, #2
	conv->specifier = *sp++;
    36d0:	460b      	mov	r3, r1
    36d2:	f813 2b01 	ldrb.w	r2, [r3], #1
	switch (conv->specifier) {
    36d6:	2a78      	cmp	r2, #120	; 0x78
	conv->specifier = *sp++;
    36d8:	9302      	str	r3, [sp, #8]
    36da:	f88d 203b 	strb.w	r2, [sp, #59]	; 0x3b
		if (conv->length_mod == LENGTH_UPPER_L) {
    36de:	f89d 3039 	ldrb.w	r3, [sp, #57]	; 0x39
	switch (conv->specifier) {
    36e2:	f200 80c0 	bhi.w	3866 <cbvprintf+0x392>
    36e6:	2a57      	cmp	r2, #87	; 0x57
    36e8:	d833      	bhi.n	3752 <cbvprintf+0x27e>
    36ea:	2a41      	cmp	r2, #65	; 0x41
    36ec:	d003      	beq.n	36f6 <cbvprintf+0x222>
    36ee:	3a45      	subs	r2, #69	; 0x45
    36f0:	2a02      	cmp	r2, #2
    36f2:	f200 80b8 	bhi.w	3866 <cbvprintf+0x392>
		conv->specifier_cat = SPECIFIER_FP;
    36f6:	2204      	movs	r2, #4
    36f8:	f89d 303a 	ldrb.w	r3, [sp, #58]	; 0x3a
    36fc:	f362 0302 	bfi	r3, r2, #0, #3
    3700:	f88d 303a 	strb.w	r3, [sp, #58]	; 0x3a
			unsupported = true;
    3704:	2301      	movs	r3, #1
			break;
    3706:	e085      	b.n	3814 <cbvprintf+0x340>
			conv->length_mod = LENGTH_H;
    3708:	4613      	mov	r3, r2
    370a:	2202      	movs	r2, #2
			conv->length_mod = LENGTH_L;
    370c:	f362 03c6 	bfi	r3, r2, #3, #4
    3710:	f88d 3039 	strb.w	r3, [sp, #57]	; 0x39
    3714:	e7dc      	b.n	36d0 <cbvprintf+0x1fc>
		if (*++sp == 'l') {
    3716:	785a      	ldrb	r2, [r3, #1]
    3718:	2a6c      	cmp	r2, #108	; 0x6c
    371a:	f89d 2039 	ldrb.w	r2, [sp, #57]	; 0x39
    371e:	d101      	bne.n	3724 <cbvprintf+0x250>
			conv->length_mod = LENGTH_LL;
    3720:	2104      	movs	r1, #4
    3722:	e7d0      	b.n	36c6 <cbvprintf+0x1f2>
			conv->length_mod = LENGTH_L;
    3724:	4613      	mov	r3, r2
    3726:	2203      	movs	r2, #3
    3728:	e7f0      	b.n	370c <cbvprintf+0x238>
		conv->length_mod = LENGTH_J;
    372a:	2205      	movs	r2, #5
    372c:	f89d 3039 	ldrb.w	r3, [sp, #57]	; 0x39
    3730:	e7ec      	b.n	370c <cbvprintf+0x238>
		conv->length_mod = LENGTH_T;
    3732:	4613      	mov	r3, r2
    3734:	2207      	movs	r2, #7
    3736:	e7e9      	b.n	370c <cbvprintf+0x238>
		conv->unsupported = true;
    3738:	f8bd 3038 	ldrh.w	r3, [sp, #56]	; 0x38
    373c:	f423 43f0 	bic.w	r3, r3, #30720	; 0x7800
    3740:	f023 0302 	bic.w	r3, r3, #2
    3744:	f443 4380 	orr.w	r3, r3, #16384	; 0x4000
    3748:	f043 0302 	orr.w	r3, r3, #2
    374c:	f8ad 3038 	strh.w	r3, [sp, #56]	; 0x38
		break;
    3750:	e7be      	b.n	36d0 <cbvprintf+0x1fc>
	switch (conv->specifier) {
    3752:	f1a2 0158 	sub.w	r1, r2, #88	; 0x58
    3756:	2920      	cmp	r1, #32
    3758:	f200 8085 	bhi.w	3866 <cbvprintf+0x392>
    375c:	a001      	add	r0, pc, #4	; (adr r0, 3764 <cbvprintf+0x290>)
    375e:	f850 f021 	ldr.w	pc, [r0, r1, lsl #2]
    3762:	bf00      	nop
    3764:	00003829 	.word	0x00003829
    3768:	00003867 	.word	0x00003867
    376c:	00003867 	.word	0x00003867
    3770:	00003867 	.word	0x00003867
    3774:	00003867 	.word	0x00003867
    3778:	00003867 	.word	0x00003867
    377c:	00003867 	.word	0x00003867
    3780:	00003867 	.word	0x00003867
    3784:	00003867 	.word	0x00003867
    3788:	000036f7 	.word	0x000036f7
    378c:	00003867 	.word	0x00003867
    3790:	00003829 	.word	0x00003829
    3794:	000037e9 	.word	0x000037e9
    3798:	000036f7 	.word	0x000036f7
    379c:	000036f7 	.word	0x000036f7
    37a0:	000036f7 	.word	0x000036f7
    37a4:	00003867 	.word	0x00003867
    37a8:	000037e9 	.word	0x000037e9
    37ac:	00003867 	.word	0x00003867
    37b0:	00003867 	.word	0x00003867
    37b4:	00003867 	.word	0x00003867
    37b8:	00003867 	.word	0x00003867
    37bc:	00003831 	.word	0x00003831
    37c0:	00003829 	.word	0x00003829
    37c4:	0000384d 	.word	0x0000384d
    37c8:	00003867 	.word	0x00003867
    37cc:	00003867 	.word	0x00003867
    37d0:	0000384d 	.word	0x0000384d
    37d4:	00003867 	.word	0x00003867
    37d8:	00003829 	.word	0x00003829
    37dc:	00003867 	.word	0x00003867
    37e0:	00003867 	.word	0x00003867
    37e4:	00003829 	.word	0x00003829
		conv->specifier_cat = SPECIFIER_SINT;
    37e8:	2001      	movs	r0, #1
    37ea:	f89d 103a 	ldrb.w	r1, [sp, #58]	; 0x3a
		if (conv->length_mod == LENGTH_UPPER_L) {
    37ee:	f003 0378 	and.w	r3, r3, #120	; 0x78
		conv->specifier_cat = SPECIFIER_UINT;
    37f2:	f360 0102 	bfi	r1, r0, #0, #3
		if (conv->length_mod == LENGTH_UPPER_L) {
    37f6:	2b40      	cmp	r3, #64	; 0x40
		conv->specifier_cat = SPECIFIER_UINT;
    37f8:	f88d 103a 	strb.w	r1, [sp, #58]	; 0x3a
			conv->invalid = true;
    37fc:	bf02      	ittt	eq
    37fe:	f89d 1038 	ldrbeq.w	r1, [sp, #56]	; 0x38
    3802:	f041 0101 	orreq.w	r1, r1, #1
    3806:	f88d 1038 	strbeq.w	r1, [sp, #56]	; 0x38
		if (conv->specifier == 'c') {
    380a:	2a63      	cmp	r2, #99	; 0x63
    380c:	d131      	bne.n	3872 <cbvprintf+0x39e>
			unsupported = (conv->length_mod != LENGTH_NONE);
    380e:	3b00      	subs	r3, #0
    3810:	bf18      	it	ne
    3812:	2301      	movne	r3, #1
	conv->unsupported |= unsupported;
    3814:	f89d 2038 	ldrb.w	r2, [sp, #56]	; 0x38
    3818:	f3c2 0140 	ubfx	r1, r2, #1, #1
    381c:	430b      	orrs	r3, r1
    381e:	f363 0241 	bfi	r2, r3, #1, #1
    3822:	f88d 2038 	strb.w	r2, [sp, #56]	; 0x38
	return sp;
    3826:	e6d7      	b.n	35d8 <cbvprintf+0x104>
		conv->specifier_cat = SPECIFIER_UINT;
    3828:	2002      	movs	r0, #2
    382a:	f89d 103a 	ldrb.w	r1, [sp, #58]	; 0x3a
    382e:	e7de      	b.n	37ee <cbvprintf+0x31a>
		conv->specifier_cat = SPECIFIER_PTR;
    3830:	2103      	movs	r1, #3
    3832:	f89d 203a 	ldrb.w	r2, [sp, #58]	; 0x3a
		if (conv->length_mod == LENGTH_UPPER_L) {
    3836:	f003 0378 	and.w	r3, r3, #120	; 0x78
    383a:	f1a3 0040 	sub.w	r0, r3, #64	; 0x40
		conv->specifier_cat = SPECIFIER_PTR;
    383e:	f361 0202 	bfi	r2, r1, #0, #3
		if (conv->length_mod == LENGTH_UPPER_L) {
    3842:	4243      	negs	r3, r0
		conv->specifier_cat = SPECIFIER_PTR;
    3844:	f88d 203a 	strb.w	r2, [sp, #58]	; 0x3a
		if (conv->length_mod == LENGTH_UPPER_L) {
    3848:	4143      	adcs	r3, r0
    384a:	e7e3      	b.n	3814 <cbvprintf+0x340>
		conv->specifier_cat = SPECIFIER_PTR;
    384c:	2103      	movs	r1, #3
    384e:	f89d 203a 	ldrb.w	r2, [sp, #58]	; 0x3a
		if (conv->length_mod != LENGTH_NONE) {
    3852:	f013 0f78 	tst.w	r3, #120	; 0x78
		conv->specifier_cat = SPECIFIER_PTR;
    3856:	f361 0202 	bfi	r2, r1, #0, #3
		if (conv->length_mod != LENGTH_NONE) {
    385a:	bf14      	ite	ne
    385c:	2301      	movne	r3, #1
    385e:	2300      	moveq	r3, #0
		conv->specifier_cat = SPECIFIER_PTR;
    3860:	f88d 203a 	strb.w	r2, [sp, #58]	; 0x3a
		if (conv->length_mod != LENGTH_NONE) {
    3864:	e7d6      	b.n	3814 <cbvprintf+0x340>
		conv->invalid = true;
    3866:	f89d 3038 	ldrb.w	r3, [sp, #56]	; 0x38
    386a:	f043 0301 	orr.w	r3, r3, #1
    386e:	f88d 3038 	strb.w	r3, [sp, #56]	; 0x38
	bool unsupported = false;
    3872:	2300      	movs	r3, #0
    3874:	e7ce      	b.n	3814 <cbvprintf+0x340>
		} else if (conv->width_present) {
    3876:	f99d 2038 	ldrsb.w	r2, [sp, #56]	; 0x38
    387a:	2a00      	cmp	r2, #0
		int width = -1;
    387c:	bfac      	ite	ge
    387e:	f04f 38ff 	movge.w	r8, #4294967295	; 0xffffffff
			width = conv->width_value;
    3882:	f8dd 803c 	ldrlt.w	r8, [sp, #60]	; 0x3c
    3886:	e6b9      	b.n	35fc <cbvprintf+0x128>
		} else if (conv->prec_present) {
    3888:	079f      	lsls	r7, r3, #30
    388a:	f57f aec5 	bpl.w	3618 <cbvprintf+0x144>
			precision = conv->prec_value;
    388e:	9f10      	ldr	r7, [sp, #64]	; 0x40
		conv->pad0_value = 0;
    3890:	2300      	movs	r3, #0
		conv->pad0_pre_exp = 0;
    3892:	e9cd 330f 	strd	r3, r3, [sp, #60]	; 0x3c
			= (enum specifier_cat_enum)conv->specifier_cat;
    3896:	f89d 303a 	ldrb.w	r3, [sp, #58]	; 0x3a
			= (enum length_mod_enum)conv->length_mod;
    389a:	f89d 1039 	ldrb.w	r1, [sp, #57]	; 0x39
		enum specifier_cat_enum specifier_cat
    389e:	f003 0307 	and.w	r3, r3, #7
		if (specifier_cat == SPECIFIER_SINT) {
    38a2:	2b01      	cmp	r3, #1
			= (enum length_mod_enum)conv->length_mod;
    38a4:	f3c1 01c3 	ubfx	r1, r1, #3, #4
		if (specifier_cat == SPECIFIER_SINT) {
    38a8:	d139      	bne.n	391e <cbvprintf+0x44a>
			switch (length_mod) {
    38aa:	1ecb      	subs	r3, r1, #3
    38ac:	2b04      	cmp	r3, #4
    38ae:	d823      	bhi.n	38f8 <cbvprintf+0x424>
    38b0:	e8df f003 	tbb	[pc, r3]
    38b4:	22090903 	.word	0x22090903
    38b8:	22          	.byte	0x22
    38b9:	00          	.byte	0x00
					value->sint = va_arg(ap, long);
    38ba:	f854 3b04 	ldr.w	r3, [r4], #4
				value->sint = (short)value->sint;
    38be:	17da      	asrs	r2, r3, #31
    38c0:	e9cd 320c 	strd	r3, r2, [sp, #48]	; 0x30
    38c4:	e006      	b.n	38d4 <cbvprintf+0x400>
					(sint_value_type)va_arg(ap, intmax_t);
    38c6:	3407      	adds	r4, #7
    38c8:	f024 0407 	bic.w	r4, r4, #7
				value->sint =
    38cc:	e8f4 2302 	ldrd	r2, r3, [r4], #8
    38d0:	e9cd 230c 	strd	r2, r3, [sp, #48]	; 0x30
		if (conv->invalid || conv->unsupported) {
    38d4:	f89d 3038 	ldrb.w	r3, [sp, #56]	; 0x38
    38d8:	f013 0603 	ands.w	r6, r3, #3
    38dc:	d057      	beq.n	398e <cbvprintf+0x4ba>
			OUTS(sp, fp);
    38de:	464a      	mov	r2, r9
    38e0:	4659      	mov	r1, fp
    38e2:	4650      	mov	r0, sl
    38e4:	9b02      	ldr	r3, [sp, #8]
    38e6:	f00e f863 	bl	119b0 <outs>
    38ea:	2800      	cmp	r0, #0
    38ec:	f2c0 813d 	blt.w	3b6a <cbvprintf+0x696>
    38f0:	4405      	add	r5, r0
			OUTS(bps, bpe);
    38f2:	f8dd 9008 	ldr.w	r9, [sp, #8]
    38f6:	e5f5      	b.n	34e4 <cbvprintf+0x10>
					(sint_value_type)va_arg(ap, ptrdiff_t);
    38f8:	f854 3b04 	ldr.w	r3, [r4], #4
			if (length_mod == LENGTH_HH) {
    38fc:	2901      	cmp	r1, #1
					(sint_value_type)va_arg(ap, ptrdiff_t);
    38fe:	ea4f 72e3 	mov.w	r2, r3, asr #31
    3902:	e9cd 320c 	strd	r3, r2, [sp, #48]	; 0x30
			if (length_mod == LENGTH_HH) {
    3906:	d105      	bne.n	3914 <cbvprintf+0x440>
				value->uint = (unsigned char)value->uint;
    3908:	f89d 3030 	ldrb.w	r3, [sp, #48]	; 0x30
				value->uint = (unsigned short)value->uint;
    390c:	930c      	str	r3, [sp, #48]	; 0x30
    390e:	2300      	movs	r3, #0
    3910:	930d      	str	r3, [sp, #52]	; 0x34
    3912:	e7df      	b.n	38d4 <cbvprintf+0x400>
			} else if (length_mod == LENGTH_H) {
    3914:	2902      	cmp	r1, #2
    3916:	d1dd      	bne.n	38d4 <cbvprintf+0x400>
				value->sint = (short)value->sint;
    3918:	f9bd 3030 	ldrsh.w	r3, [sp, #48]	; 0x30
    391c:	e7cf      	b.n	38be <cbvprintf+0x3ea>
		} else if (specifier_cat == SPECIFIER_UINT) {
    391e:	2b02      	cmp	r3, #2
    3920:	d123      	bne.n	396a <cbvprintf+0x496>
			switch (length_mod) {
    3922:	1ecb      	subs	r3, r1, #3
    3924:	2b04      	cmp	r3, #4
    3926:	d813      	bhi.n	3950 <cbvprintf+0x47c>
    3928:	e8df f003 	tbb	[pc, r3]
    392c:	120a0a03 	.word	0x120a0a03
    3930:	12          	.byte	0x12
    3931:	00          	.byte	0x00
				if ((!WCHAR_IS_SIGNED)
    3932:	2300      	movs	r3, #0
					value->uint = (wchar_t)va_arg(ap,
    3934:	6822      	ldr	r2, [r4, #0]
				value->sint = va_arg(ap, int);
    3936:	1d20      	adds	r0, r4, #4
					value->uint = (wchar_t)va_arg(ap,
    3938:	920c      	str	r2, [sp, #48]	; 0x30
    393a:	930d      	str	r3, [sp, #52]	; 0x34
					(uint_value_type)va_arg(ap, size_t);
    393c:	4604      	mov	r4, r0
    393e:	e7c9      	b.n	38d4 <cbvprintf+0x400>
					(uint_value_type)va_arg(ap,
    3940:	1de0      	adds	r0, r4, #7
    3942:	f020 0007 	bic.w	r0, r0, #7
				value->uint =
    3946:	e8f0 2302 	ldrd	r2, r3, [r0], #8
    394a:	e9cd 230c 	strd	r2, r3, [sp, #48]	; 0x30
				break;
    394e:	e7f5      	b.n	393c <cbvprintf+0x468>
					(uint_value_type)va_arg(ap, size_t);
    3950:	f854 3b04 	ldr.w	r3, [r4], #4
			if (length_mod == LENGTH_HH) {
    3954:	2901      	cmp	r1, #1
					(uint_value_type)va_arg(ap, size_t);
    3956:	930c      	str	r3, [sp, #48]	; 0x30
    3958:	f04f 0300 	mov.w	r3, #0
    395c:	930d      	str	r3, [sp, #52]	; 0x34
			if (length_mod == LENGTH_HH) {
    395e:	d0d3      	beq.n	3908 <cbvprintf+0x434>
			} else if (length_mod == LENGTH_H) {
    3960:	2902      	cmp	r1, #2
    3962:	d1b7      	bne.n	38d4 <cbvprintf+0x400>
				value->uint = (unsigned short)value->uint;
    3964:	f8bd 3030 	ldrh.w	r3, [sp, #48]	; 0x30
    3968:	e7d0      	b.n	390c <cbvprintf+0x438>
		} else if (specifier_cat == SPECIFIER_FP) {
    396a:	2b04      	cmp	r3, #4
    396c:	d109      	bne.n	3982 <cbvprintf+0x4ae>
					(sint_value_type)va_arg(ap, long long);
    396e:	1de3      	adds	r3, r4, #7
    3970:	f023 0307 	bic.w	r3, r3, #7
    3974:	f103 0408 	add.w	r4, r3, #8
				value->ldbl = va_arg(ap, long double);
    3978:	e9d3 2300 	ldrd	r2, r3, [r3]
    397c:	e9cd 230c 	strd	r2, r3, [sp, #48]	; 0x30
    3980:	e7a8      	b.n	38d4 <cbvprintf+0x400>
		} else if (specifier_cat == SPECIFIER_PTR) {
    3982:	2b03      	cmp	r3, #3
			value->ptr = va_arg(ap, void *);
    3984:	bf04      	itt	eq
    3986:	f854 3b04 	ldreq.w	r3, [r4], #4
    398a:	930c      	streq	r3, [sp, #48]	; 0x30
    398c:	e7a2      	b.n	38d4 <cbvprintf+0x400>
		switch (conv->specifier) {
    398e:	f89d 003b 	ldrb.w	r0, [sp, #59]	; 0x3b
    3992:	2878      	cmp	r0, #120	; 0x78
    3994:	d8ad      	bhi.n	38f2 <cbvprintf+0x41e>
    3996:	2862      	cmp	r0, #98	; 0x62
    3998:	d820      	bhi.n	39dc <cbvprintf+0x508>
    399a:	2825      	cmp	r0, #37	; 0x25
    399c:	f43f adac 	beq.w	34f8 <cbvprintf+0x24>
    39a0:	2858      	cmp	r0, #88	; 0x58
    39a2:	d1a6      	bne.n	38f2 <cbvprintf+0x41e>
			bps = encode_uint(value->uint, conv, buf, bpe);
    39a4:	e9dd 010c 	ldrd	r0, r1, [sp, #48]	; 0x30
    39a8:	f10d 032e 	add.w	r3, sp, #46	; 0x2e
    39ac:	9300      	str	r3, [sp, #0]
    39ae:	aa0e      	add	r2, sp, #56	; 0x38
    39b0:	ab06      	add	r3, sp, #24
    39b2:	f7ff fd43 	bl	343c <encode_uint>
    39b6:	4681      	mov	r9, r0
			if (precision >= 0) {
    39b8:	2f00      	cmp	r7, #0
    39ba:	f10d 002e 	add.w	r0, sp, #46	; 0x2e
    39be:	db0b      	blt.n	39d8 <cbvprintf+0x504>
				conv->flag_zero = false;
    39c0:	f89d 2038 	ldrb.w	r2, [sp, #56]	; 0x38
				size_t len = bpe - bps;
    39c4:	eba0 0309 	sub.w	r3, r0, r9
				conv->flag_zero = false;
    39c8:	f36f 1286 	bfc	r2, #6, #1
				if (len < (size_t)precision) {
    39cc:	429f      	cmp	r7, r3
				conv->flag_zero = false;
    39ce:	f88d 2038 	strb.w	r2, [sp, #56]	; 0x38
				if (len < (size_t)precision) {
    39d2:	d901      	bls.n	39d8 <cbvprintf+0x504>
					conv->pad0_value = precision - (int)len;
    39d4:	1afb      	subs	r3, r7, r3
    39d6:	930f      	str	r3, [sp, #60]	; 0x3c
		const char *bpe = buf + sizeof(buf);
    39d8:	4607      	mov	r7, r0
    39da:	e03c      	b.n	3a56 <cbvprintf+0x582>
		switch (conv->specifier) {
    39dc:	3863      	subs	r0, #99	; 0x63
    39de:	2815      	cmp	r0, #21
    39e0:	d887      	bhi.n	38f2 <cbvprintf+0x41e>
    39e2:	a201      	add	r2, pc, #4	; (adr r2, 39e8 <cbvprintf+0x514>)
    39e4:	f852 f020 	ldr.w	pc, [r2, r0, lsl #2]
    39e8:	00003a67 	.word	0x00003a67
    39ec:	00003ac9 	.word	0x00003ac9
    39f0:	000038f3 	.word	0x000038f3
    39f4:	000038f3 	.word	0x000038f3
    39f8:	000038f3 	.word	0x000038f3
    39fc:	000038f3 	.word	0x000038f3
    3a00:	00003ac9 	.word	0x00003ac9
    3a04:	000038f3 	.word	0x000038f3
    3a08:	000038f3 	.word	0x000038f3
    3a0c:	000038f3 	.word	0x000038f3
    3a10:	000038f3 	.word	0x000038f3
    3a14:	00003b23 	.word	0x00003b23
    3a18:	00003af1 	.word	0x00003af1
    3a1c:	00003af5 	.word	0x00003af5
    3a20:	000038f3 	.word	0x000038f3
    3a24:	000038f3 	.word	0x000038f3
    3a28:	00003a41 	.word	0x00003a41
    3a2c:	000038f3 	.word	0x000038f3
    3a30:	00003af1 	.word	0x00003af1
    3a34:	000038f3 	.word	0x000038f3
    3a38:	000038f3 	.word	0x000038f3
    3a3c:	00003af1 	.word	0x00003af1
			if (precision >= 0) {
    3a40:	2f00      	cmp	r7, #0
			bps = (const char *)value->ptr;
    3a42:	f8dd 9030 	ldr.w	r9, [sp, #48]	; 0x30
			if (precision >= 0) {
    3a46:	db0a      	blt.n	3a5e <cbvprintf+0x58a>
				len = strnlen(bps, precision);
    3a48:	4639      	mov	r1, r7
    3a4a:	4648      	mov	r0, r9
    3a4c:	f013 f9d8 	bl	16e00 <strnlen>
		char sign = 0;
    3a50:	2600      	movs	r6, #0
			bpe = bps + len;
    3a52:	eb09 0700 	add.w	r7, r9, r0
		if (bps == NULL) {
    3a56:	f1b9 0f00 	cmp.w	r9, #0
    3a5a:	d10c      	bne.n	3a76 <cbvprintf+0x5a2>
    3a5c:	e749      	b.n	38f2 <cbvprintf+0x41e>
				len = strlen(bps);
    3a5e:	4648      	mov	r0, r9
    3a60:	f7fd fa06 	bl	e70 <strlen>
    3a64:	e7f4      	b.n	3a50 <cbvprintf+0x57c>
			break;
    3a66:	2600      	movs	r6, #0
			buf[0] = CHAR_IS_SIGNED ? value->sint : value->uint;
    3a68:	9b0c      	ldr	r3, [sp, #48]	; 0x30
			bpe = buf + 1;
    3a6a:	f10d 0719 	add.w	r7, sp, #25
			buf[0] = CHAR_IS_SIGNED ? value->sint : value->uint;
    3a6e:	f88d 3018 	strb.w	r3, [sp, #24]
			bps = buf;
    3a72:	f10d 0918 	add.w	r9, sp, #24
		size_t nj_len = (bpe - bps);
    3a76:	eba7 0309 	sub.w	r3, r7, r9
		if (sign != 0) {
    3a7a:	b106      	cbz	r6, 3a7e <cbvprintf+0x5aa>
			nj_len += 1U;
    3a7c:	3301      	adds	r3, #1
		if (conv->altform_0c) {
    3a7e:	f89d 203a 	ldrb.w	r2, [sp, #58]	; 0x3a
    3a82:	06d0      	lsls	r0, r2, #27
    3a84:	d566      	bpl.n	3b54 <cbvprintf+0x680>
			nj_len += 2U;
    3a86:	3302      	adds	r3, #2
		if (conv->pad_fp) {
    3a88:	0652      	lsls	r2, r2, #25
		nj_len += conv->pad0_value;
    3a8a:	990f      	ldr	r1, [sp, #60]	; 0x3c
			nj_len += conv->pad0_pre_exp;
    3a8c:	bf48      	it	mi
    3a8e:	9a10      	ldrmi	r2, [sp, #64]	; 0x40
		nj_len += conv->pad0_value;
    3a90:	440b      	add	r3, r1
			nj_len += conv->pad0_pre_exp;
    3a92:	bf48      	it	mi
    3a94:	189b      	addmi	r3, r3, r2
		if (width > 0) {
    3a96:	f1b8 0f00 	cmp.w	r8, #0
    3a9a:	dd73      	ble.n	3b84 <cbvprintf+0x6b0>
			if (!conv->flag_dash) {
    3a9c:	f89d 2038 	ldrb.w	r2, [sp, #56]	; 0x38
			width -= (int)nj_len;
    3aa0:	eba8 0803 	sub.w	r8, r8, r3
			if (!conv->flag_dash) {
    3aa4:	f3c2 0380 	ubfx	r3, r2, #2, #1
    3aa8:	9303      	str	r3, [sp, #12]
    3aaa:	0753      	lsls	r3, r2, #29
    3aac:	d46a      	bmi.n	3b84 <cbvprintf+0x6b0>
				if (conv->flag_zero) {
    3aae:	0650      	lsls	r0, r2, #25
    3ab0:	d55e      	bpl.n	3b70 <cbvprintf+0x69c>
					if (sign != 0) {
    3ab2:	b13e      	cbz	r6, 3ac4 <cbvprintf+0x5f0>
						OUTC(sign);
    3ab4:	4659      	mov	r1, fp
    3ab6:	4630      	mov	r0, r6
    3ab8:	47d0      	blx	sl
    3aba:	2800      	cmp	r0, #0
    3abc:	db55      	blt.n	3b6a <cbvprintf+0x696>
						sign = 0;
    3abe:	9b03      	ldr	r3, [sp, #12]
						OUTC(sign);
    3ac0:	3501      	adds	r5, #1
						sign = 0;
    3ac2:	461e      	mov	r6, r3
					pad = '0';
    3ac4:	2330      	movs	r3, #48	; 0x30
    3ac6:	e054      	b.n	3b72 <cbvprintf+0x69e>
			if (conv->flag_plus) {
    3ac8:	071e      	lsls	r6, r3, #28
    3aca:	d40f      	bmi.n	3aec <cbvprintf+0x618>
				sign = ' ';
    3acc:	f013 0610 	ands.w	r6, r3, #16
    3ad0:	bf18      	it	ne
    3ad2:	2620      	movne	r6, #32
			sint = value->sint;
    3ad4:	e9dd 230c 	ldrd	r2, r3, [sp, #48]	; 0x30
			if (sint < 0) {
    3ad8:	2b00      	cmp	r3, #0
    3ada:	f6bf af63 	bge.w	39a4 <cbvprintf+0x4d0>
				value->uint = (uint_value_type)-sint;
    3ade:	4252      	negs	r2, r2
    3ae0:	eb63 0343 	sbc.w	r3, r3, r3, lsl #1
				sign = '-';
    3ae4:	262d      	movs	r6, #45	; 0x2d
				value->uint = (uint_value_type)-sint;
    3ae6:	e9cd 230c 	strd	r2, r3, [sp, #48]	; 0x30
    3aea:	e75b      	b.n	39a4 <cbvprintf+0x4d0>
				sign = '+';
    3aec:	262b      	movs	r6, #43	; 0x2b
    3aee:	e7f1      	b.n	3ad4 <cbvprintf+0x600>
		switch (conv->specifier) {
    3af0:	2600      	movs	r6, #0
    3af2:	e757      	b.n	39a4 <cbvprintf+0x4d0>
			if (value->ptr != NULL) {
    3af4:	980c      	ldr	r0, [sp, #48]	; 0x30
    3af6:	b340      	cbz	r0, 3b4a <cbvprintf+0x676>
				bps = encode_uint((uintptr_t)value->ptr, conv,
    3af8:	f10d 032e 	add.w	r3, sp, #46	; 0x2e
    3afc:	9300      	str	r3, [sp, #0]
    3afe:	2100      	movs	r1, #0
    3b00:	ab06      	add	r3, sp, #24
    3b02:	aa0e      	add	r2, sp, #56	; 0x38
    3b04:	f7ff fc9a 	bl	343c <encode_uint>
				conv->altform_0c = true;
    3b08:	f8bd 303a 	ldrh.w	r3, [sp, #58]	; 0x3a
				bps = encode_uint((uintptr_t)value->ptr, conv,
    3b0c:	4681      	mov	r9, r0
				conv->altform_0c = true;
    3b0e:	f003 03ef 	and.w	r3, r3, #239	; 0xef
    3b12:	f443 43f0 	orr.w	r3, r3, #30720	; 0x7800
    3b16:	f043 0310 	orr.w	r3, r3, #16
		char sign = 0;
    3b1a:	2600      	movs	r6, #0
				conv->altform_0c = true;
    3b1c:	f8ad 303a 	strh.w	r3, [sp, #58]	; 0x3a
				goto prec_int_pad0;
    3b20:	e74a      	b.n	39b8 <cbvprintf+0x4e4>
				store_count(conv, value->ptr, count);
    3b22:	9b0c      	ldr	r3, [sp, #48]	; 0x30
	switch ((enum length_mod_enum)conv->length_mod) {
    3b24:	2907      	cmp	r1, #7
    3b26:	f63f aee4 	bhi.w	38f2 <cbvprintf+0x41e>
    3b2a:	e8df f001 	tbb	[pc, r1]
    3b2e:	040c      	.short	0x040c
    3b30:	08080c06 	.word	0x08080c06
    3b34:	0c0c      	.short	0x0c0c
		*(signed char *)dp = (signed char)count;
    3b36:	701d      	strb	r5, [r3, #0]
		break;
    3b38:	e6db      	b.n	38f2 <cbvprintf+0x41e>
		*(short *)dp = (short)count;
    3b3a:	801d      	strh	r5, [r3, #0]
		break;
    3b3c:	e6d9      	b.n	38f2 <cbvprintf+0x41e>
		*(intmax_t *)dp = (intmax_t)count;
    3b3e:	17ea      	asrs	r2, r5, #31
    3b40:	e9c3 5200 	strd	r5, r2, [r3]
		break;
    3b44:	e6d5      	b.n	38f2 <cbvprintf+0x41e>
		*(ptrdiff_t *)dp = (ptrdiff_t)count;
    3b46:	601d      	str	r5, [r3, #0]
		break;
    3b48:	e6d3      	b.n	38f2 <cbvprintf+0x41e>
			bpe = bps + 5;
    3b4a:	4f2e      	ldr	r7, [pc, #184]	; (3c04 <cbvprintf+0x730>)
    3b4c:	4606      	mov	r6, r0
			bps = "(nil)";
    3b4e:	f1a7 0905 	sub.w	r9, r7, #5
    3b52:	e790      	b.n	3a76 <cbvprintf+0x5a2>
		} else if (conv->altform_0) {
    3b54:	0711      	lsls	r1, r2, #28
			nj_len += 1U;
    3b56:	bf48      	it	mi
    3b58:	3301      	addmi	r3, #1
    3b5a:	e795      	b.n	3a88 <cbvprintf+0x5b4>
					OUTC(pad);
    3b5c:	4618      	mov	r0, r3
    3b5e:	4659      	mov	r1, fp
    3b60:	9303      	str	r3, [sp, #12]
    3b62:	47d0      	blx	sl
    3b64:	2800      	cmp	r0, #0
    3b66:	9b03      	ldr	r3, [sp, #12]
    3b68:	da04      	bge.n	3b74 <cbvprintf+0x6a0>
#undef OUTS
#undef OUTC
}
    3b6a:	b013      	add	sp, #76	; 0x4c
    3b6c:	e8bd 8ff0 	ldmia.w	sp!, {r4, r5, r6, r7, r8, r9, sl, fp, pc}
				char pad = ' ';
    3b70:	2320      	movs	r3, #32
    3b72:	4445      	add	r5, r8
    3b74:	4642      	mov	r2, r8
				while (width-- > 0) {
    3b76:	2a00      	cmp	r2, #0
    3b78:	eba5 0108 	sub.w	r1, r5, r8
    3b7c:	f108 38ff 	add.w	r8, r8, #4294967295	; 0xffffffff
    3b80:	dcec      	bgt.n	3b5c <cbvprintf+0x688>
    3b82:	460d      	mov	r5, r1
		if (sign != 0) {
    3b84:	b12e      	cbz	r6, 3b92 <cbvprintf+0x6be>
			OUTC(sign);
    3b86:	4659      	mov	r1, fp
    3b88:	4630      	mov	r0, r6
    3b8a:	47d0      	blx	sl
    3b8c:	2800      	cmp	r0, #0
    3b8e:	dbec      	blt.n	3b6a <cbvprintf+0x696>
    3b90:	3501      	adds	r5, #1
			if (conv->altform_0c | conv->altform_0) {
    3b92:	f89d 303a 	ldrb.w	r3, [sp, #58]	; 0x3a
    3b96:	06d9      	lsls	r1, r3, #27
    3b98:	d401      	bmi.n	3b9e <cbvprintf+0x6ca>
    3b9a:	071a      	lsls	r2, r3, #28
    3b9c:	d505      	bpl.n	3baa <cbvprintf+0x6d6>
				OUTC('0');
    3b9e:	4659      	mov	r1, fp
    3ba0:	2030      	movs	r0, #48	; 0x30
    3ba2:	47d0      	blx	sl
    3ba4:	2800      	cmp	r0, #0
    3ba6:	dbe0      	blt.n	3b6a <cbvprintf+0x696>
    3ba8:	3501      	adds	r5, #1
			if (conv->altform_0c) {
    3baa:	f89d 303a 	ldrb.w	r3, [sp, #58]	; 0x3a
    3bae:	06db      	lsls	r3, r3, #27
    3bb0:	d506      	bpl.n	3bc0 <cbvprintf+0x6ec>
				OUTC(conv->specifier);
    3bb2:	4659      	mov	r1, fp
    3bb4:	f89d 003b 	ldrb.w	r0, [sp, #59]	; 0x3b
    3bb8:	47d0      	blx	sl
    3bba:	2800      	cmp	r0, #0
    3bbc:	dbd5      	blt.n	3b6a <cbvprintf+0x696>
    3bbe:	3501      	adds	r5, #1
			while (pad_len-- > 0) {
    3bc0:	9e0f      	ldr	r6, [sp, #60]	; 0x3c
    3bc2:	442e      	add	r6, r5
    3bc4:	1b73      	subs	r3, r6, r5
    3bc6:	2b00      	cmp	r3, #0
    3bc8:	dc15      	bgt.n	3bf6 <cbvprintf+0x722>
			OUTS(bps, bpe);
    3bca:	463b      	mov	r3, r7
    3bcc:	464a      	mov	r2, r9
    3bce:	4659      	mov	r1, fp
    3bd0:	4650      	mov	r0, sl
    3bd2:	f00d feed 	bl	119b0 <outs>
    3bd6:	2800      	cmp	r0, #0
    3bd8:	dbc7      	blt.n	3b6a <cbvprintf+0x696>
    3bda:	4405      	add	r5, r0
		while (width > 0) {
    3bdc:	44a8      	add	r8, r5
    3bde:	eba8 0305 	sub.w	r3, r8, r5
    3be2:	2b00      	cmp	r3, #0
    3be4:	f77f ae85 	ble.w	38f2 <cbvprintf+0x41e>
			OUTC(' ');
    3be8:	4659      	mov	r1, fp
    3bea:	2020      	movs	r0, #32
    3bec:	47d0      	blx	sl
    3bee:	2800      	cmp	r0, #0
    3bf0:	dbbb      	blt.n	3b6a <cbvprintf+0x696>
    3bf2:	3501      	adds	r5, #1
			--width;
    3bf4:	e7f3      	b.n	3bde <cbvprintf+0x70a>
				OUTC('0');
    3bf6:	4659      	mov	r1, fp
    3bf8:	2030      	movs	r0, #48	; 0x30
    3bfa:	47d0      	blx	sl
    3bfc:	2800      	cmp	r0, #0
    3bfe:	dbb4      	blt.n	3b6a <cbvprintf+0x696>
    3c00:	3501      	adds	r5, #1
    3c02:	e7df      	b.n	3bc4 <cbvprintf+0x6f0>
    3c04:	00017d2c 	.word	0x00017d2c

00003c08 <z_arm_cpu_idle_init>:
 * void z_arm_cpu_idle_init(void);
 */

SECTION_FUNC(TEXT, z_arm_cpu_idle_init)
#if defined(CONFIG_CPU_CORTEX_M)
	ldr	r1, =_SCB_SCR
    3c08:	4901      	ldr	r1, [pc, #4]	; (3c10 <z_arm_cpu_idle_init+0x8>)
	movs.n	r2, #_SCR_INIT_BITS
    3c0a:	2210      	movs	r2, #16
	str	r2, [r1]
    3c0c:	600a      	str	r2, [r1, #0]
#endif
	bx	lr
    3c0e:	4770      	bx	lr
	ldr	r1, =_SCB_SCR
    3c10:	e000ed10 	.word	0xe000ed10

00003c14 <arch_cpu_idle>:
	 * before entering low power state.
	 *
	 * Set PRIMASK before configuring BASEPRI to prevent interruption
	 * before wake-up.
	 */
	cpsid	i
    3c14:	b672      	cpsid	i

	/*
	 * Set wake-up interrupt priority to the lowest and synchronise to
	 * ensure that this is visible to the WFI instruction.
	 */
	eors.n	r0, r0
    3c16:	4040      	eors	r0, r0
	msr	BASEPRI, r0
    3c18:	f380 8811 	msr	BASEPRI, r0
	isb
    3c1c:	f3bf 8f6f 	isb	sy

	/*
	 * Wait for all memory transactions to complete before entering low
	 * power state.
	 */
	dsb
    3c20:	f3bf 8f4f 	dsb	sy

	/* Enter low power state */
	wfi
    3c24:	bf30      	wfi

	/*
	 * Clear PRIMASK and flush instruction buffer to immediately service
	 * the wake-up interrupt.
	 */
	cpsie	i
    3c26:	b662      	cpsie	i
	isb
    3c28:	f3bf 8f6f 	isb	sy

	bx	lr
    3c2c:	4770      	bx	lr
    3c2e:	bf00      	nop

00003c30 <z_SysNmiOnReset>:
_ASM_FILE_PROLOGUE

GTEXT(z_SysNmiOnReset)

SECTION_FUNC(TEXT, z_SysNmiOnReset)
    wfi
    3c30:	bf30      	wfi
    b z_SysNmiOnReset
    3c32:	f7ff bffd 	b.w	3c30 <z_SysNmiOnReset>
    3c36:	bf00      	nop

00003c38 <z_arm_prep_c>:
 * This routine prepares for the execution of and runs C code.
 *
 * @return N/A
 */
void z_arm_prep_c(void)
{
    3c38:	b508      	push	{r3, lr}
	SCB->VTOR = VECTOR_ADDRESS & SCB_VTOR_TBLOFF_Msk;
    3c3a:	4b09      	ldr	r3, [pc, #36]	; (3c60 <z_arm_prep_c+0x28>)
    3c3c:	4a09      	ldr	r2, [pc, #36]	; (3c64 <z_arm_prep_c+0x2c>)
    3c3e:	f023 4360 	bic.w	r3, r3, #3758096384	; 0xe0000000
    3c42:	f023 037f 	bic.w	r3, r3, #127	; 0x7f
    3c46:	6093      	str	r3, [r2, #8]
  \details Acts as a special kind of Data Memory Barrier.
           It completes when all explicit memory accesses before this instruction complete.
 */
__STATIC_FORCEINLINE void __DSB(void)
{
  __ASM volatile ("dsb 0xF":::"memory");
    3c48:	f3bf 8f4f 	dsb	sy
  __ASM volatile ("isb 0xF":::"memory");
    3c4c:	f3bf 8f6f 	isb	sy
	relocate_vector_table();
#if defined(CONFIG_CPU_HAS_FPU)
	z_arm_floating_point_init();
#endif
	z_bss_zero();
    3c50:	f008 fab2 	bl	c1b8 <z_bss_zero>
	z_data_copy();
    3c54:	f008 ff0a 	bl	ca6c <z_data_copy>
#if defined(CONFIG_ARMV7_R) && defined(CONFIG_INIT_STACKS)
	z_arm_init_stacks();
#endif
	z_arm_interrupt_init();
    3c58:	f000 f98a 	bl	3f70 <z_arm_interrupt_init>
	z_cstart();
    3c5c:	f008 fab6 	bl	c1cc <z_cstart>
    3c60:	00000000 	.word	0x00000000
    3c64:	e000ed00 	.word	0xe000ed00

00003c68 <arch_swap>:
 * as BASEPRI is not available.
 */
int arch_swap(unsigned int key)
{
	/* store off key and return value */
	_current->arch.basepri = key;
    3c68:	4a09      	ldr	r2, [pc, #36]	; (3c90 <arch_swap+0x28>)
	_current->arch.swap_return_value = _k_neg_eagain;
    3c6a:	490a      	ldr	r1, [pc, #40]	; (3c94 <arch_swap+0x2c>)
	_current->arch.basepri = key;
    3c6c:	6893      	ldr	r3, [r2, #8]
	_current->arch.swap_return_value = _k_neg_eagain;
    3c6e:	6809      	ldr	r1, [r1, #0]
	_current->arch.basepri = key;
    3c70:	6698      	str	r0, [r3, #104]	; 0x68
	_current->arch.swap_return_value = _k_neg_eagain;
    3c72:	66d9      	str	r1, [r3, #108]	; 0x6c

#if defined(CONFIG_CPU_CORTEX_M)
	/* set pending bit to make sure we will take a PendSV exception */
	SCB->ICSR |= SCB_ICSR_PENDSVSET_Msk;
    3c74:	4908      	ldr	r1, [pc, #32]	; (3c98 <arch_swap+0x30>)
    3c76:	684b      	ldr	r3, [r1, #4]
    3c78:	f043 5380 	orr.w	r3, r3, #268435456	; 0x10000000
    3c7c:	604b      	str	r3, [r1, #4]
	__asm__ volatile(
		"cpsie i;"
		"isb"
		: : : "memory");
#elif defined(CONFIG_ARMV7_M_ARMV8_M_MAINLINE)
	__asm__ volatile(
    3c7e:	2300      	movs	r3, #0
    3c80:	f383 8811 	msr	BASEPRI, r3
    3c84:	f3bf 8f6f 	isb	sy
#endif

	/* Context switch is performed here. Returning implies the
	 * thread has been context-switched-in again.
	 */
	return _current->arch.swap_return_value;
    3c88:	6893      	ldr	r3, [r2, #8]
}
    3c8a:	6ed8      	ldr	r0, [r3, #108]	; 0x6c
    3c8c:	4770      	bx	lr
    3c8e:	bf00      	nop
    3c90:	20000348 	.word	0x20000348
    3c94:	00017c48 	.word	0x00017c48
    3c98:	e000ed00 	.word	0xe000ed00

00003c9c <z_arm_pendsv>:
    pop {r0, lr}
#endif /* CONFIG_ARMV6_M_ARMV8_M_BASELINE */
#endif /* CONFIG_INSTRUMENT_THREAD_SWITCHING */

    /* load _kernel into r1 and current k_thread into r2 */
    ldr r1, =_kernel
    3c9c:	490f      	ldr	r1, [pc, #60]	; (3cdc <z_arm_pendsv+0x40>)
    ldr r2, [r1, #_kernel_offset_to_current]
    3c9e:	688a      	ldr	r2, [r1, #8]
    /* Store LSB of LR (EXC_RETURN) to the thread's 'mode' word. */
    strb lr, [r2, #_thread_offset_to_mode_exc_return]
#endif

    /* addr of callee-saved regs in thread in r0 */
    ldr r0, =_thread_offset_to_callee_saved
    3ca0:	f04f 0030 	mov.w	r0, #48	; 0x30
    add r0, r2
    3ca4:	4410      	add	r0, r2

    /* save callee-saved + psp in thread */
#if defined(CONFIG_CPU_CORTEX_M)
    mrs ip, PSP
    3ca6:	f3ef 8c09 	mrs	ip, PSP
    mov r6, r11
    mov r7, ip
    /* store r8-12 */
    stmea r0!, {r3-r7}
#elif defined(CONFIG_ARMV7_M_ARMV8_M_MAINLINE)
    stmia r0, {v1-v8, ip}
    3caa:	e880 1ff0 	stmia.w	r0, {r4, r5, r6, r7, r8, r9, sl, fp, ip}

    /* Protect the kernel state while we play with the thread lists */
#if defined(CONFIG_ARMV6_M_ARMV8_M_BASELINE)
    cpsid i
#elif defined(CONFIG_ARMV7_M_ARMV8_M_MAINLINE)
    movs.n r0, #_EXC_IRQ_DEFAULT_PRIO
    3cae:	2020      	movs	r0, #32
    msr BASEPRI_MAX, r0
    3cb0:	f380 8812 	msr	BASEPRI_MAX, r0
    isb /* Make the effect of disabling interrupts be realized immediately */
    3cb4:	f3bf 8f6f 	isb	sy
     * the new thread is context-switched in since all decisions
     * to pend PendSV have been taken with the current kernel
     * state and this is what we're handling currently.
     */
#if defined(CONFIG_CPU_CORTEX_M)
    ldr v4, =_SCS_ICSR
    3cb8:	4f09      	ldr	r7, [pc, #36]	; (3ce0 <z_arm_pendsv+0x44>)
    ldr v3, =_SCS_ICSR_UNPENDSV
    3cba:	f04f 6600 	mov.w	r6, #134217728	; 0x8000000
#endif

    /* _kernel is still in r1 */

    /* fetch the thread to run from the ready queue cache */
    ldr r2, [r1, #_kernel_offset_to_ready_q_cache]
    3cbe:	698a      	ldr	r2, [r1, #24]

    str r2, [r1, #_kernel_offset_to_current]
    3cc0:	608a      	str	r2, [r1, #8]
     * has been handled.
     */

    /* _SCS_ICSR is still in v4 and _SCS_ICSR_UNPENDSV in v3 */
#if defined(CONFIG_CPU_CORTEX_M)
    str v3, [v4, #0]
    3cc2:	603e      	str	r6, [r7, #0]

    ldr r0, [r4]
    movs.n r3, #0
    str r3, [r4]
#else
    ldr r0, [r2, #_thread_offset_to_basepri]
    3cc4:	6e90      	ldr	r0, [r2, #104]	; 0x68
    movs r3, #0
    3cc6:	2300      	movs	r3, #0
    str r3, [r2, #_thread_offset_to_basepri]
    3cc8:	6693      	str	r3, [r2, #104]	; 0x68
    /* restore r4-r7, go back 9*4 bytes to the start of the stored block */
    subs r0, #36
    ldmia r0!, {r4-r7}
#elif defined(CONFIG_ARMV7_M_ARMV8_M_MAINLINE)
    /* restore BASEPRI for the incoming thread */
    msr BASEPRI, r0
    3cca:	f380 8811 	msr	BASEPRI, r0
    isb

#endif

    /* load callee-saved + psp from thread */
    add r0, r2, #_thread_offset_to_callee_saved
    3cce:	f102 0030 	add.w	r0, r2, #48	; 0x30
    ldmia r0, {v1-v8, ip}
    3cd2:	e890 1ff0 	ldmia.w	r0, {r4, r5, r6, r7, r8, r9, sl, fp, ip}
#else
#error Unknown ARM architecture
#endif /* CONFIG_ARMV6_M_ARMV8_M_BASELINE */

#if defined(CONFIG_CPU_CORTEX_M)
    msr PSP, ip
    3cd6:	f38c 8809 	msr	PSP, ip

    /*
     * Cortex-M: return from PendSV exception
     * Cortex-R: return to the caller (z_arm_{exc,int}_exit, or z_arm_svc)
     */
    bx lr
    3cda:	4770      	bx	lr
    ldr r1, =_kernel
    3cdc:	20000348 	.word	0x20000348
    ldr v4, =_SCS_ICSR
    3ce0:	e000ed04 	.word	0xe000ed04

00003ce4 <z_arm_svc>:
  bne _stack_frame_endif
_stack_frame_msp:
  mrs r0, MSP
_stack_frame_endif:
#elif defined(CONFIG_ARMV7_M_ARMV8_M_MAINLINE)
    tst lr, #_EXC_RETURN_SPSEL_Msk /* did we come from thread mode ? */
    3ce4:	f01e 0f04 	tst.w	lr, #4
    ite eq  /* if zero (equal), came from handler mode */
    3ce8:	bf0c      	ite	eq
        mrseq r0, MSP   /* handler mode, stack frame is on MSP */
